Archive member included to satisfy reference by file (symbol)

arch/arm/lib/lib.a(ashldi3.o)
                              drivers/mmc/built-in.o (__aeabi_llsl)
arch/arm/lib/lib.a(lib1funcs.o)
                              arch/arm/mach-zynq/built-in.o (__aeabi_uidiv)
arch/arm/lib/lib.a(lshrdi3.o)
                              lib/built-in.o (__aeabi_llsr)
arch/arm/lib/lib.a(div0.o)    arch/arm/lib/lib.a(lib1funcs.o) (__div0)

Discarded input sections

 .data          0x0000000000000000        0x0 arch/arm/cpu/armv7/start.o
 .bss           0x0000000000000000        0x0 arch/arm/cpu/armv7/start.o
 .text.v7_outer_cache_inval_range
                0x0000000000000000        0x4 arch/arm/cpu/armv7/built-in.o
 .text.invalidate_dcache_range
                0x0000000000000000       0x64 arch/arm/cpu/armv7/built-in.o
 .text.v7_arch_cp15_set_l2aux_ctrl
                0x0000000000000000        0x8 arch/arm/cpu/armv7/built-in.o
 .text.v7_arch_cp15_set_acr
                0x0000000000000000        0x8 arch/arm/cpu/armv7/built-in.o
 .text.sdelay   0x0000000000000000        0xc arch/arm/cpu/armv7/built-in.o
 .text.wait_on_value
                0x0000000000000000       0x38 arch/arm/cpu/armv7/built-in.o
 .data          0x0000000000000000        0x0 arch/arm/cpu/armv7/built-in.o
 .bss           0x0000000000000000        0x0 arch/arm/cpu/armv7/built-in.o
 .text.setup_board_tags
                0x0000000000000000        0x4 arch/arm/lib/built-in.o
 .text.armv7_boot_nonsec_default
                0x0000000000000000        0x8 arch/arm/lib/built-in.o
 .text.enable_caches
                0x0000000000000000        0xc arch/arm/lib/built-in.o
 .text.invalidate_dcache_range
                0x0000000000000000        0x4 arch/arm/lib/built-in.o
 .text.flush_dcache_range
                0x0000000000000000        0x4 arch/arm/lib/built-in.o
 .text.flush_dcache_all
                0x0000000000000000        0xc arch/arm/lib/built-in.o
 .text.arm_init_before_mmu
                0x0000000000000000        0x4 arch/arm/lib/built-in.o
 .text.mmu_page_table_flush
                0x0000000000000000        0x4 arch/arm/lib/built-in.o
 .text.fdt_psci
                0x0000000000000000        0x8 arch/arm/lib/built-in.o
 .rodata.enable_caches.str1.1
                0x0000000000000000       0x1d arch/arm/lib/built-in.o
 .data          0x0000000000000000        0x0 arch/arm/lib/built-in.o
 .__secure_end  0x0000000000000000        0x0 arch/arm/lib/built-in.o
 .__secure_stack_end
                0x0000000000000000        0x0 arch/arm/lib/built-in.o
 .__secure_stack_start
                0x0000000000000000        0x0 arch/arm/lib/built-in.o
 .__secure_start
                0x0000000000000000        0x0 arch/arm/lib/built-in.o
 .bss           0x0000000000000000        0x0 arch/arm/lib/built-in.o
 .text.zynq_get_silicon_version
                0x0000000000000000       0x18 arch/arm/mach-zynq/built-in.o
 .text.zynq_slcr_get_boot_mode
                0x0000000000000000       0x10 arch/arm/mach-zynq/built-in.o
 .text.zynq_slcr_get_mio_pin_status
                0x0000000000000000       0x94 arch/arm/mach-zynq/built-in.o
 .text.zynq_clk_get_rate
                0x0000000000000000       0x20 arch/arm/mach-zynq/built-in.o
 .text.zynq_clk_get_name
                0x0000000000000000       0x18 arch/arm/mach-zynq/built-in.o
 .rodata.mio_periphs
                0x0000000000000000       0x50 arch/arm/mach-zynq/built-in.o
 .rodata.nand16_pins
                0x0000000000000000       0x20 arch/arm/mach-zynq/built-in.o
 .rodata.nand8_pins
                0x0000000000000000       0x34 arch/arm/mach-zynq/built-in.o
 .rodata.str1.1
                0x0000000000000000       0x17 arch/arm/mach-zynq/built-in.o
 .rodata.usb0_pins
                0x0000000000000000       0x30 arch/arm/mach-zynq/built-in.o
 .rodata.usb1_pins
                0x0000000000000000       0x30 arch/arm/mach-zynq/built-in.o
 .data          0x0000000000000000        0x0 arch/arm/mach-zynq/built-in.o
 .bss           0x0000000000000000        0x0 arch/arm/mach-zynq/built-in.o
 .text          0x0000000000000000        0x0 board/xilinx/zynq/built-in.o
 .text.board_late_init
                0x0000000000000000       0x88 board/xilinx/zynq/built-in.o
 .rodata.board_late_init.str1.1
                0x0000000000000000       0x34 board/xilinx/zynq/built-in.o
 .data          0x0000000000000000        0x0 board/xilinx/zynq/built-in.o
 .bss           0x0000000000000000        0x0 board/xilinx/zynq/built-in.o
 .text          0x0000000000000000        0x0 cmd/built-in.o
 .text.bootz_setup
                0x0000000000000000       0x18 cmd/built-in.o
 .text.invalidate_icache_all
                0x0000000000000000        0xc cmd/built-in.o
 .text.flush_dcache_all
                0x0000000000000000        0xc cmd/built-in.o
 .text.soc_clk_dump
                0x0000000000000000       0x18 cmd/built-in.o
 .rodata.bootz_setup.str1.1
                0x0000000000000000       0x34 cmd/built-in.o
 .rodata.flush_dcache_all.str1.1
                0x0000000000000000       0x2e cmd/built-in.o
 .rodata.invalidate_icache_all.str1.1
                0x0000000000000000       0x33 cmd/built-in.o
 .rodata.soc_clk_dump.str1.1
                0x0000000000000000       0x11 cmd/built-in.o
 .data          0x0000000000000000        0x0 cmd/built-in.o
 .bss           0x0000000000000000        0x0 cmd/built-in.o
 .text          0x0000000000000000        0x0 common/built-in.o
 .text.hash_progressive_lookup_algo
                0x0000000000000000       0x60 common/built-in.o
 .text.hash_parse_string
                0x0000000000000000       0x68 common/built-in.o
 .text.hash_block
                0x0000000000000000       0x6c common/built-in.o
 .text.unset_local_var
                0x0000000000000000       0xa0 common/built-in.o
 .text.arch_cpu_init
                0x0000000000000000        0x8 common/built-in.o
 .text.red_led_off
                0x0000000000000000        0x4 common/built-in.o
 .text.green_led_on
                0x0000000000000000        0x4 common/built-in.o
 .text.green_led_off
                0x0000000000000000        0x4 common/built-in.o
 .text.yellow_led_on
                0x0000000000000000        0x4 common/built-in.o
 .text.yellow_led_off
                0x0000000000000000        0x4 common/built-in.o
 .text.blue_led_on
                0x0000000000000000        0x4 common/built-in.o
 .text.blue_led_off
                0x0000000000000000        0x4 common/built-in.o
 .text.dram_init_banksize
                0x0000000000000000        0x4 common/built-in.o
 .text.arch_reserve_stacks
                0x0000000000000000        0x8 common/built-in.o
 .text.board_flash_wp_on
                0x0000000000000000        0x8 common/built-in.o
 .text.fixup_cpu
                0x0000000000000000        0x8 common/built-in.o
 .text.checkboard
                0x0000000000000000        0x8 common/built-in.o
 .text.env_flags_parse_varaccess_from_binflags
                0x0000000000000000       0x54 common/built-in.o
 .text.fdt_read_prop
                0x0000000000000000       0x64 common/built-in.o
 .text.fdt_getprop_u32_default_node
                0x0000000000000000       0x40 common/built-in.o
 .text.fdt_getprop_u32_default
                0x0000000000000000       0x3c common/built-in.o
 .text.do_fixup_by_path_u32
                0x0000000000000000       0x2c common/built-in.o
 .text.do_fixup_by_prop
                0x0000000000000000       0x9c common/built-in.o
 .text.do_fixup_by_prop_u32
                0x0000000000000000       0x38 common/built-in.o
 .text.do_fixup_by_compat
                0x0000000000000000       0x8c common/built-in.o
 .text.do_fixup_by_compat_u32
                0x0000000000000000       0x2c common/built-in.o
 .text.fdt_increase_size
                0x0000000000000000       0x14 common/built-in.o
 .text.fdt_del_node_and_alias
                0x0000000000000000       0x44 common/built-in.o
 .text.fdt_node_offset_by_compat_reg
                0x0000000000000000       0x8c common/built-in.o
 .text.fdt_alloc_phandle
                0x0000000000000000       0x58 common/built-in.o
 .text.fdt_set_phandle
                0x0000000000000000       0x60 common/built-in.o
 .text.fdt_create_phandle
                0x0000000000000000       0x64 common/built-in.o
 .text.fdt_set_node_status
                0x0000000000000000       0xe8 common/built-in.o
 .text.fdt_set_status_by_alias
                0x0000000000000000       0x2c common/built-in.o
 .text.fdt_verify_alias_address
                0x0000000000000000       0xcc common/built-in.o
 .text.fdt_get_base_address
                0x0000000000000000       0x54 common/built-in.o
 .text.fdt_read_range
                0x0000000000000000      0x13c common/built-in.o
 .text.fdt_setup_simplefb_node
                0x0000000000000000      0x208 common/built-in.o
 .text.fdt_fixup_display
                0x0000000000000000       0xd4 common/built-in.o
 .text.miiphy_link
                0x0000000000000000       0x54 common/built-in.o
 .text.splash_screen_prepare
                0x0000000000000000        0x8 common/built-in.o
 .text.fputc    0x0000000000000000       0x1c common/built-in.o
 .text.fputs    0x0000000000000000       0x1c common/built-in.o
 .text.fprintf  0x0000000000000000       0x4c common/built-in.o
 .text.confirm_yesno
                0x0000000000000000       0xcc common/built-in.o
 .text.valloc   0x0000000000000000        0xc common/built-in.o
 .text.pvalloc  0x0000000000000000       0x18 common/built-in.o
 .text.cfree    0x0000000000000000        0x4 common/built-in.o
 .text.malloc_usable_size
                0x0000000000000000       0x44 common/built-in.o
 .text.mallopt  0x0000000000000000       0x54 common/built-in.o
 .text.memalign_simple
                0x0000000000000000       0x44 common/built-in.o
 .text.genimg_get_short_name
                0x0000000000000000       0x1c common/built-in.o
 .text.genimg_get_cat_name
                0x0000000000000000       0x5c common/built-in.o
 .text.genimg_get_cat_short_name
                0x0000000000000000       0x5c common/built-in.o
 .text.genimg_get_cat_count
                0x0000000000000000       0x18 common/built-in.o
 .text.genimg_get_cat_desc
                0x0000000000000000       0x18 common/built-in.o
 .text.genimg_get_type_short_name
                0x0000000000000000       0x10 common/built-in.o
 .text.genimg_get_comp_short_name
                0x0000000000000000       0x10 common/built-in.o
 .text.genimg_get_os_short_name
                0x0000000000000000       0x10 common/built-in.o
 .text.genimg_get_arch_short_name
                0x0000000000000000       0x10 common/built-in.o
 .text.genimg_get_kernel_addr
                0x0000000000000000       0x24 common/built-in.o
 .text.fit_get_subimage_count
                0x0000000000000000       0x54 common/built-in.o
 .text.fit_get_timestamp
                0x0000000000000000       0x48 common/built-in.o
 .text.fit_set_timestamp
                0x0000000000000000       0x40 common/built-in.o
 .text.fit_conf_find_compat
                0x0000000000000000      0x1a0 common/built-in.o
 .text.get_ram_size
                0x0000000000000000       0xdc common/built-in.o
 .text.stdio_init
                0x0000000000000000       0x14 common/built-in.o
 .text.cli_simple_parse_line
                0x0000000000000000       0x88 common/built-in.o
 .text.cli_simple_process_macros
                0x0000000000000000      0x218 common/built-in.o
 .text.cli_simple_run_command
                0x0000000000000000      0x158 common/built-in.o
 .text.cli_simple_loop
                0x0000000000000000       0x80 common/built-in.o
 .text.cli_simple_run_command_list
                0x0000000000000000       0x74 common/built-in.o
 .text.run_command_repeatable
                0x0000000000000000       0x1c common/built-in.o
 .rodata.env_flags_parse_varaccess_from_binflags.str1.1
                0x0000000000000000       0x2c common/built-in.o
 .rodata.fdt_create_phandle.str1.1
                0x0000000000000000       0x1a common/built-in.o
 .rodata.fdt_fixup_display.str1.1
                0x0000000000000000       0x1c common/built-in.o
 .rodata.fdt_read_range.str1.1
                0x0000000000000000        0xf common/built-in.o
 .rodata.fdt_set_node_status.str1.1
                0x0000000000000000       0x3a common/built-in.o
 .rodata.fdt_set_phandle.str1.1
                0x0000000000000000       0x16 common/built-in.o
 .rodata.fdt_setup_simplefb_node.str1.1
                0x0000000000000000       0x2c common/built-in.o
 .rodata.fdt_verify_alias_address.str1.1
                0x0000000000000000       0xcd common/built-in.o
 .rodata.miiphy_link.str1.1
                0x0000000000000000       0x28 common/built-in.o
 .rodata.confirm_yesno.str1.1
                0x0000000000000000       0x10 common/built-in.o
 .rodata.genimg_get_short_name.str1.1
                0x0000000000000000        0x8 common/built-in.o
 .rodata.table_info
                0x0000000000000000       0x30 common/built-in.o
 .rodata.unknown_str.8437
                0x0000000000000000        0x9 common/built-in.o
 .rodata.fit_get_timestamp.str1.1
                0x0000000000000000        0xa common/built-in.o
 .rodata.cli_simple_loop.str1.1
                0x0000000000000000       0x14 common/built-in.o
 .rodata.cli_simple_parse_line.str1.1
                0x0000000000000000       0x1f common/built-in.o
 .rodata.cli_simple_run_command.str1.1
                0x0000000000000000       0x16 common/built-in.o
 .data          0x0000000000000000        0x0 common/built-in.o
 .bss           0x0000000000000000        0x0 common/built-in.o
 .bss.msg.8438  0x0000000000000000       0x1e common/built-in.o
 .bss.lastcommand.7883
                0x0000000000000000      0x801 common/built-in.o
 .text          0x0000000000000000        0x0 disk/built-in.o
 .text.part_get_info_by_name
                0x0000000000000000       0x9c disk/built-in.o
 .text.is_valid_dos_buf
                0x0000000000000000       0x18 disk/built-in.o
 .text.write_mbr_partition
                0x0000000000000000       0x64 disk/built-in.o
 .rodata.__func__.7905
                0x0000000000000000       0x14 disk/built-in.o
 .rodata.write_mbr_partition.str1.1
                0x0000000000000000       0x2d disk/built-in.o
 .data          0x0000000000000000        0x0 disk/built-in.o
 .bss           0x0000000000000000        0x0 disk/built-in.o
 .text          0x0000000000000000        0x0 drivers/built-in.o
 .text._device_find_global_by_of_offset
                0x0000000000000000       0x50 drivers/built-in.o
 .text.device_get_child
                0x0000000000000000       0x50 drivers/built-in.o
 .text.device_find_child_by_seq
                0x0000000000000000       0x68 drivers/built-in.o
 .text.device_get_child_by_seq
                0x0000000000000000       0x58 drivers/built-in.o
 .text.device_find_child_by_of_offset
                0x0000000000000000       0x4c drivers/built-in.o
 .text.device_get_child_by_of_offset
                0x0000000000000000       0x3c drivers/built-in.o
 .text.device_get_global_by_of_offset
                0x0000000000000000       0x40 drivers/built-in.o
 .text.dev_get_driver_data
                0x0000000000000000        0x8 drivers/built-in.o
 .text.dev_get_driver_ops
                0x0000000000000000       0x10 drivers/built-in.o
 .text.dev_get_uclass_name
                0x0000000000000000       0x14 drivers/built-in.o
 .text.dev_get_addr_size_index
                0x0000000000000000       0x40 drivers/built-in.o
 .text.dev_get_addr_name
                0x0000000000000000       0x34 drivers/built-in.o
 .text.dev_get_addr_ptr
                0x0000000000000000        0x8 drivers/built-in.o
 .text.dev_map_physmem
                0x0000000000000000       0x14 drivers/built-in.o
 .text.device_has_children
                0x0000000000000000       0x14 drivers/built-in.o
 .text.device_has_active_children
                0x0000000000000000       0x40 drivers/built-in.o
 .text.device_is_last_sibling
                0x0000000000000000       0x24 drivers/built-in.o
 .text.device_set_name
                0x0000000000000000       0x30 drivers/built-in.o
 .text.of_device_is_compatible
                0x0000000000000000       0x24 drivers/built-in.o
 .text.of_machine_is_compatible
                0x0000000000000000       0x24 drivers/built-in.o
 .text.dm_fixup_for_gd_move
                0x0000000000000000       0x18 drivers/built-in.o
 .text.dm_set_translation_offset
                0x0000000000000000       0x18 drivers/built-in.o
 .text.dm_uninit
                0x0000000000000000       0x1c drivers/built-in.o
 .text.uclass_destroy
                0x0000000000000000       0x98 drivers/built-in.o
 .text.uclass_get_name
                0x0000000000000000       0x28 drivers/built-in.o
 .text.uclass_find_device_by_name
                0x0000000000000000       0x88 drivers/built-in.o
 .text.uclass_get_device_by_driver
                0x0000000000000000       0x6c drivers/built-in.o
 .text.uclass_get_device_by_name
                0x0000000000000000       0x30 drivers/built-in.o
 .text.uclass_get_device_by_phandle
                0x0000000000000000       0xa0 drivers/built-in.o
 .text.uclass_first_device_err
                0x0000000000000000       0x24 drivers/built-in.o
 .text.dm_dbg   0x0000000000000000       0x28 drivers/built-in.o
 .text.list_count_items
                0x0000000000000000       0x28 drivers/built-in.o
 .text.simple_bus_translate
                0x0000000000000000       0x38 drivers/built-in.o
 .text.get_desc
                0x0000000000000000       0xac drivers/built-in.o
 .text.blk_list_part
                0x0000000000000000       0x74 drivers/built-in.o
 .text.blk_print_part_devnum
                0x0000000000000000       0x38 drivers/built-in.o
 .text.blk_list_devices
                0x0000000000000000       0x68 drivers/built-in.o
 .text.blk_print_device_num
                0x0000000000000000       0x3c drivers/built-in.o
 .text.blk_show_device
                0x0000000000000000       0x78 drivers/built-in.o
 .text.blk_first_device
                0x0000000000000000       0x60 drivers/built-in.o
 .text.blk_next_device
                0x0000000000000000       0x50 drivers/built-in.o
 .text.blk_read_devnum
                0x0000000000000000       0x5c drivers/built-in.o
 .text.blk_write_devnum
                0x0000000000000000       0x38 drivers/built-in.o
 .text.blk_prepare_device
                0x0000000000000000       0x14 drivers/built-in.o
 .text.blk_unbind_all
                0x0000000000000000       0x9c drivers/built-in.o
 .text._input_send_keycodes
                0x0000000000000000      0x408 drivers/built-in.o
 .text.input_tstc
                0x0000000000000000       0x48 drivers/built-in.o
 .text.input_getc
                0x0000000000000000       0x5c drivers/built-in.o
 .text.input_send_keycodes
                0x0000000000000000        0x8 drivers/built-in.o
 .text.input_add_keycode
                0x0000000000000000       0x84 drivers/built-in.o
 .text.input_add_table
                0x0000000000000000       0x40 drivers/built-in.o
 .text.input_set_delays
                0x0000000000000000        0xc drivers/built-in.o
 .text.input_allow_repeats
                0x0000000000000000        0x8 drivers/built-in.o
 .text.input_leds_changed
                0x0000000000000000       0x14 drivers/built-in.o
 .text.input_add_tables
                0x0000000000000000       0xb0 drivers/built-in.o
 .text.input_init
                0x0000000000000000       0x24 drivers/built-in.o
 .text.input_stdio_register
                0x0000000000000000       0x54 drivers/built-in.o
 .text.create_keymap
                0x0000000000000000       0x90 drivers/built-in.o
 .text.key_matrix_decode
                0x0000000000000000       0xe8 drivers/built-in.o
 .text.key_matrix_decode_fdt
                0x0000000000000000       0xc8 drivers/built-in.o
 .text.key_matrix_init
                0x0000000000000000       0x3c drivers/built-in.o
 .rodata.dev_get_addr_name.str1.1
                0x0000000000000000        0xa drivers/built-in.o
 .rodata.blk_list_devices.str1.1
                0x0000000000000000        0xc drivers/built-in.o
 .rodata.blk_print_device_num.str1.1
                0x0000000000000000       0x11 drivers/built-in.o
 .rodata.blk_show_device.str1.1
                0x0000000000000000       0x1d drivers/built-in.o
 .rodata.CSWTCH.35
                0x0000000000000000        0xd drivers/built-in.o
 .rodata.input_stdio_register.str1.1
                0x0000000000000000        0x6 drivers/built-in.o
 .rodata.kbd_plain_xlate
                0x0000000000000000       0x64 drivers/built-in.o
 .rodata.kbd_plain_xlate_german
                0x0000000000000000       0x84 drivers/built-in.o
 .rodata.kbd_to_ansi364
                0x0000000000000000       0x20 drivers/built-in.o
 .rodata.key_matrix_decode_fdt.str1.1
                0x0000000000000000       0x1d drivers/built-in.o
 .data          0x0000000000000000        0x0 drivers/built-in.o
 .data.kbd_ctrl_xlate
                0x0000000000000000       0x64 drivers/built-in.o
 .data.kbd_entry
                0x0000000000000000       0x8c drivers/built-in.o
 .data.kbd_right_alt_xlate_german
                0x0000000000000000       0x58 drivers/built-in.o
 .data.kbd_shift_xlate
                0x0000000000000000       0x64 drivers/built-in.o
 .data.kbd_shift_xlate_german
                0x0000000000000000       0x84 drivers/built-in.o
 .bss           0x0000000000000000        0x0 drivers/built-in.o
 .text          0x0000000000000000        0x0 drivers/gpio/built-in.o
 .text.dm_gpio_lookup_name
                0x0000000000000000      0x108 drivers/gpio/built-in.o
 .text.gpio_lookup_name
                0x0000000000000000       0x70 drivers/gpio/built-in.o
 .text.gpio_xlate_offs_flags
                0x0000000000000000       0x44 drivers/gpio/built-in.o
 .text.dm_gpio_request
                0x0000000000000000       0x98 drivers/gpio/built-in.o
 .text.dm_gpio_requestf
                0x0000000000000000       0x44 drivers/gpio/built-in.o
 .text.gpio_request
                0x0000000000000000       0x2c drivers/gpio/built-in.o
 .text.gpio_requestf
                0x0000000000000000       0x44 drivers/gpio/built-in.o
 .text._dm_gpio_free
                0x0000000000000000       0x74 drivers/gpio/built-in.o
 .text.gpio_free
                0x0000000000000000       0x28 drivers/gpio/built-in.o
 .text.gpio_direction_input
                0x0000000000000000       0x4c drivers/gpio/built-in.o
 .text.gpio_direction_output
                0x0000000000000000       0x54 drivers/gpio/built-in.o
 .text.dm_gpio_get_value
                0x0000000000000000       0x48 drivers/gpio/built-in.o
 .text.dm_gpio_get_open_drain
                0x0000000000000000       0x50 drivers/gpio/built-in.o
 .text.dm_gpio_set_open_drain
                0x0000000000000000       0x4c drivers/gpio/built-in.o
 .text.dm_gpio_set_dir_flags
                0x0000000000000000       0x98 drivers/gpio/built-in.o
 .text._gpio_request_by_name_nodev
                0x0000000000000000      0x100 drivers/gpio/built-in.o
 .text.dm_gpio_set_dir
                0x0000000000000000        0x8 drivers/gpio/built-in.o
 .text.gpio_get_value
                0x0000000000000000       0x24 drivers/gpio/built-in.o
 .text.gpio_get_bank_info
                0x0000000000000000       0x1c drivers/gpio/built-in.o
 .text.get_function
                0x0000000000000000       0xac drivers/gpio/built-in.o
 .text.gpio_get_function
                0x0000000000000000        0xc drivers/gpio/built-in.o
 .text.gpio_get_raw_function
                0x0000000000000000        0xc drivers/gpio/built-in.o
 .text.gpio_get_status
                0x0000000000000000      0x114 drivers/gpio/built-in.o
 .text.gpio_claim_vector
                0x0000000000000000       0x80 drivers/gpio/built-in.o
 .text.gpio_get_values_as_int
                0x0000000000000000       0x44 drivers/gpio/built-in.o
 .text.dm_gpio_get_values_as_int
                0x0000000000000000       0x4c drivers/gpio/built-in.o
 .text.gpio_request_by_name_nodev
                0x0000000000000000       0x30 drivers/gpio/built-in.o
 .text.gpio_request_by_name
                0x0000000000000000       0x2c drivers/gpio/built-in.o
 .text.gpio_get_list_count
                0x0000000000000000       0x38 drivers/gpio/built-in.o
 .text.dm_gpio_free
                0x0000000000000000       0x10 drivers/gpio/built-in.o
 .text.gpio_free_list
                0x0000000000000000       0x3c drivers/gpio/built-in.o
 .text.gpio_free_list_nodev
                0x0000000000000000       0x10 drivers/gpio/built-in.o
 .text.gpio_request_list_by_name_nodev
                0x0000000000000000       0x94 drivers/gpio/built-in.o
 .text.gpio_request_list_by_name
                0x0000000000000000       0x2c drivers/gpio/built-in.o
 .text.gpio_get_number
                0x0000000000000000       0x20 drivers/gpio/built-in.o
 .rodata._gpio_request_by_name_nodev.str1.1
                0x0000000000000000       0x1a drivers/gpio/built-in.o
 .rodata.dm_gpio_get_open_drain.str1.1
                0x0000000000000000        0xf drivers/gpio/built-in.o
 .rodata.dm_gpio_get_value.str1.1
                0x0000000000000000        0xa drivers/gpio/built-in.o
 .rodata.dm_gpio_set_dir_flags.str1.1
                0x0000000000000000        0x8 drivers/gpio/built-in.o
 .rodata.dm_gpio_set_open_drain.str1.1
                0x0000000000000000        0xf drivers/gpio/built-in.o
 .rodata.gpio_direction_input.str1.1
                0x0000000000000000        0xa drivers/gpio/built-in.o
 .rodata.gpio_direction_output.str1.1
                0x0000000000000000        0xb drivers/gpio/built-in.o
 .rodata.gpio_function
                0x0000000000000000       0x14 drivers/gpio/built-in.o
 .rodata.gpio_get_status.str1.1
                0x0000000000000000       0x19 drivers/gpio/built-in.o
 .data          0x0000000000000000        0x0 drivers/gpio/built-in.o
 .bss           0x0000000000000000        0x0 drivers/gpio/built-in.o
 .text          0x0000000000000000        0x0 drivers/mmc/built-in.o
 .text.mmc_get_next_devnum
                0x0000000000000000        0x8 drivers/mmc/built-in.o
 .text.mmc_unbind
                0x0000000000000000       0x30 drivers/mmc/built-in.o
 .text.cpu_mmc_init
                0x0000000000000000        0x8 drivers/mmc/built-in.o
 .text.board_mmc_init
                0x0000000000000000        0x8 drivers/mmc/built-in.o
 .text.mmc_set_preinit
                0x0000000000000000        0x8 drivers/mmc/built-in.o
 .data          0x0000000000000000        0x0 drivers/mmc/built-in.o
 .bss           0x0000000000000000        0x0 drivers/mmc/built-in.o
 .text          0x0000000000000000        0x0 drivers/mtd/built-in.o
 .text.idr_remove
                0x0000000000000000       0x14 drivers/mtd/built-in.o
 .text.idr_find
                0x0000000000000000       0x14 drivers/mtd/built-in.o
 .text.idr_get_next
                0x0000000000000000       0x44 drivers/mtd/built-in.o
 .text.idr_alloc
                0x0000000000000000       0x3c drivers/mtd/built-in.o
 .text.__mtd_next_device
                0x0000000000000000       0x20 drivers/mtd/built-in.o
 .text.del_mtd_device
                0x0000000000000000       0x70 drivers/mtd/built-in.o
 .text.__get_mtd_device
                0x0000000000000000       0x38 drivers/mtd/built-in.o
 .text.get_mtd_device
                0x0000000000000000       0x88 drivers/mtd/built-in.o
 .text.get_mtd_device_nm
                0x0000000000000000       0x5c drivers/mtd/built-in.o
 .text.__put_mtd_device
                0x0000000000000000       0x4c drivers/mtd/built-in.o
 .text.put_mtd_device
                0x0000000000000000        0x4 drivers/mtd/built-in.o
 .text.mtd_erase
                0x0000000000000000       0x90 drivers/mtd/built-in.o
 .text.mtd_get_unmapped_area
                0x0000000000000000       0x60 drivers/mtd/built-in.o
 .text.mtd_read
                0x0000000000000000       0xa4 drivers/mtd/built-in.o
 .text.mtd_write
                0x0000000000000000       0x9c drivers/mtd/built-in.o
 .text.mtd_panic_write
                0x0000000000000000       0xa0 drivers/mtd/built-in.o
 .text.mtd_read_oob
                0x0000000000000000       0x60 drivers/mtd/built-in.o
 .text.mtd_get_fact_prot_info
                0x0000000000000000       0x34 drivers/mtd/built-in.o
 .text.mtd_read_fact_prot_reg
                0x0000000000000000       0x48 drivers/mtd/built-in.o
 .text.mtd_get_user_prot_info
                0x0000000000000000       0x34 drivers/mtd/built-in.o
 .text.mtd_read_user_prot_reg
                0x0000000000000000       0x48 drivers/mtd/built-in.o
 .text.mtd_write_user_prot_reg
                0x0000000000000000       0x64 drivers/mtd/built-in.o
 .text.mtd_lock_user_prot_reg
                0x0000000000000000       0x38 drivers/mtd/built-in.o
 .text.mtd_lock
                0x0000000000000000       0x74 drivers/mtd/built-in.o
 .text.mtd_unlock
                0x0000000000000000       0x74 drivers/mtd/built-in.o
 .text.add_mtd_device
                0x0000000000000000      0x1d0 drivers/mtd/built-in.o
 .text.mtd_is_locked
                0x0000000000000000       0x74 drivers/mtd/built-in.o
 .text.mtd_block_isreserved
                0x0000000000000000       0x50 drivers/mtd/built-in.o
 .text.mtd_block_isbad
                0x0000000000000000       0x50 drivers/mtd/built-in.o
 .text.mtd_block_markbad
                0x0000000000000000       0x64 drivers/mtd/built-in.o
 .rodata.__put_mtd_device.str1.1
                0x0000000000000000       0x2c drivers/mtd/built-in.o
 .rodata.add_mtd_device.str1.1
                0x0000000000000000       0x28 drivers/mtd/built-in.o
 .rodata.del_mtd_device.str1.1
                0x0000000000000000       0x30 drivers/mtd/built-in.o
 .data          0x0000000000000000        0x0 drivers/mtd/built-in.o
 .bss           0x0000000000000000        0x0 drivers/mtd/built-in.o
 .bss.mtd_idr   0x0000000000000000      0x200 drivers/mtd/built-in.o
 .bss.mtd_table
                0x0000000000000000       0x80 drivers/mtd/built-in.o
 .text          0x0000000000000000        0x0 drivers/mtd/spi/built-in.o
 .data          0x0000000000000000        0x0 drivers/mtd/spi/built-in.o
 .bss           0x0000000000000000        0x0 drivers/mtd/spi/built-in.o
 .text          0x0000000000000000        0x0 drivers/net/built-in.o
 .text.zynq_board_read_rom_ethaddr
                0x0000000000000000        0x8 drivers/net/built-in.o
 .data          0x0000000000000000        0x0 drivers/net/built-in.o
 .bss           0x0000000000000000        0x0 drivers/net/built-in.o
 .text          0x0000000000000000        0x0 drivers/net/phy/built-in.o
 .text.phy_set_supported
                0x0000000000000000       0x5c drivers/net/phy/built-in.o
 .text.miiphy_reset
                0x0000000000000000       0x24 drivers/net/phy/built-in.o
 .text.phy_shutdown
                0x0000000000000000       0x28 drivers/net/phy/built-in.o
 .data          0x0000000000000000        0x0 drivers/net/phy/built-in.o
 .bss           0x0000000000000000        0x0 drivers/net/phy/built-in.o
 .text          0x0000000000000000        0x0 drivers/serial/built-in.o
 .data          0x0000000000000000        0x0 drivers/serial/built-in.o
 .bss           0x0000000000000000        0x0 drivers/serial/built-in.o
 .text          0x0000000000000000        0x0 drivers/spi/built-in.o
 .text.spi_chip_select
                0x0000000000000000       0x18 drivers/spi/built-in.o
 .text.spi_cs_info
                0x0000000000000000       0x5c drivers/spi/built-in.o
 .text.spi_cs_is_valid
                0x0000000000000000       0x3c drivers/spi/built-in.o
 .text.spi_setup_slave_fdt
                0x0000000000000000       0x50 drivers/spi/built-in.o
 .text.spi_setup_slave
                0x0000000000000000       0x3c drivers/spi/built-in.o
 .text.spi_free_slave
                0x0000000000000000       0x1c drivers/spi/built-in.o
 .data          0x0000000000000000        0x0 drivers/spi/built-in.o
 .bss           0x0000000000000000        0x0 drivers/spi/built-in.o
 .text          0x0000000000000000        0x0 dts/built-in.o
 .data          0x0000000000000000        0x0 dts/built-in.o
 .bss           0x0000000000000000        0x0 dts/built-in.o
 .text          0x0000000000000000        0x0 fs/built-in.o
 .text.fs_uuid  0x0000000000000000       0x28 fs/built-in.o
 .text.do_fs_uuid
                0x0000000000000000       0x8c fs/built-in.o
 .text.fat_register_device
                0x0000000000000000       0x88 fs/built-in.o
 .text.file_fat_read
                0x0000000000000000       0x38 fs/built-in.o
 .text.file_getfsname
                0x0000000000000000       0x14 fs/built-in.o
 .text.file_cd  0x0000000000000000      0x1c8 fs/built-in.o
 .text.file_detectfs
                0x0000000000000000       0x40 fs/built-in.o
 .text.file_ls  0x0000000000000000       0x94 fs/built-in.o
 .text.file_read
                0x0000000000000000       0xa4 fs/built-in.o
 .rodata.fat_register_device.str1.1
                0x0000000000000000       0x2b fs/built-in.o
 .rodata.file_detectfs.str1.1
                0x0000000000000000        0x2 fs/built-in.o
 .rodata.file_ls.str1.1
                0x0000000000000000       0x2e fs/built-in.o
 .rodata.file_read.str1.1
                0x0000000000000000       0x27 fs/built-in.o
 .rodata.filesystems
                0x0000000000000000       0x18 fs/built-in.o
 .data          0x0000000000000000        0x0 fs/built-in.o
 .data.current_filesystem
                0x0000000000000000        0x4 fs/built-in.o
 .data.file_cwd
                0x0000000000000000      0x200 fs/built-in.o
 .bss           0x0000000000000000        0x0 fs/built-in.o
 .text          0x0000000000000000        0x0 lib/built-in.o
 .text.invalidate_icache_all
                0x0000000000000000        0x4 lib/built-in.o
 .text.efi_add_runtime_mmio
                0x0000000000000000       0x88 lib/built-in.o
 .text.efi_net_set_dhcp_ack
                0x0000000000000000       0x48 lib/built-in.o
 .text.inflateInit_
                0x0000000000000000       0x10 lib/built-in.o
 .text.fdt_get_max_phandle
                0x0000000000000000       0x74 lib/built-in.o
 .text.fdt_get_alias
                0x0000000000000000       0x28 lib/built-in.o
 .text.fdt_get_path
                0x0000000000000000      0x138 lib/built-in.o
 .text.fdt_node_offset_by_prop_value
                0x0000000000000000       0x98 lib/built-in.o
 .text.fdt_stringlist_count
                0x0000000000000000       0x64 lib/built-in.o
 .text.fdt_stringlist_search
                0x0000000000000000       0xa4 lib/built-in.o
 .text.fdt_set_name
                0x0000000000000000       0x88 lib/built-in.o
 .text.fdt_appendprop
                0x0000000000000000       0xdc lib/built-in.o
 .text.fdt_pack
                0x0000000000000000       0x5c lib/built-in.o
 .text.fdt_remove_unused_strings
                0x0000000000000000       0xb0 lib/built-in.o
 .text._fdt_sw_check_header
                0x0000000000000000       0x1c lib/built-in.o
 .text._fdt_grab_space
                0x0000000000000000       0x60 lib/built-in.o
 .text.fdt_create
                0x0000000000000000       0x64 lib/built-in.o
 .text.fdt_resize
                0x0000000000000000       0xbc lib/built-in.o
 .text.fdt_add_reservemap_entry
                0x0000000000000000       0x8c lib/built-in.o
 .text.fdt_finish_reservemap
                0x0000000000000000       0x1c lib/built-in.o
 .text.fdt_begin_node
                0x0000000000000000       0x64 lib/built-in.o
 .text.fdt_end_node
                0x0000000000000000       0x38 lib/built-in.o
 .text.fdt_property_placeholder
                0x0000000000000000      0x110 lib/built-in.o
 .text.fdt_property
                0x0000000000000000       0x3c lib/built-in.o
 .text.fdt_finish
                0x0000000000000000      0x100 lib/built-in.o
 .text.fdt_setprop_inplace_namelen_partial
                0x0000000000000000       0x54 lib/built-in.o
 .text.fdt_setprop_inplace
                0x0000000000000000       0x74 lib/built-in.o
 .text.fdt_nop_property
                0x0000000000000000       0x40 lib/built-in.o
 .text.fdt_nop_node
                0x0000000000000000       0x50 lib/built-in.o
 .text.fdt_find_regions
                0x0000000000000000      0x384 lib/built-in.o
 .text.fdt_create_empty_tree
                0x0000000000000000       0x74 lib/built-in.o
 .text.fdt_add_region
                0x0000000000000000       0x94 lib/built-in.o
 .text.fdt_add_alias_regions
                0x0000000000000000      0x190 lib/built-in.o
 .text.fdt_next_region
                0x0000000000000000      0x534 lib/built-in.o
 .text.fdt_first_region
                0x0000000000000000       0x48 lib/built-in.o
 .text.crc7     0x0000000000000000       0x28 lib/built-in.o
 .text.crc8     0x0000000000000000       0x4c lib/built-in.o
 .text.lmb_dump_all
                0x0000000000000000        0x4 lib/built-in.o
 .text.lmb_is_reserved
                0x0000000000000000       0x58 lib/built-in.o
 .text.arch_lmb_reserve
                0x0000000000000000        0x4 lib/built-in.o
 .text.ldiv     0x0000000000000000       0x50 lib/built-in.o
 .text.byteReverse
                0x0000000000000000        0x4 lib/built-in.o
 .text.strcmp_compar
                0x0000000000000000        0xc lib/built-in.o
 .text.rc4_encode
                0x0000000000000000       0xe8 lib/built-in.o
 .text.sha1_csum
                0x0000000000000000       0x3c lib/built-in.o
 .text.sha1_hmac
                0x0000000000000000      0x124 lib/built-in.o
 .text.sha1_self_test
                0x0000000000000000        0x8 lib/built-in.o
 .text.fdtdec_get_compatible
                0x0000000000000000       0x10 lib/built-in.o
 .text.fdtdec_get_uint64
                0x0000000000000000       0x40 lib/built-in.o
 .text.fdtdec_lookup
                0x0000000000000000       0x48 lib/built-in.o
 .text.fdtdec_next_compatible
                0x0000000000000000       0x10 lib/built-in.o
 .text.fdtdec_next_compatible_subnode
                0x0000000000000000       0x64 lib/built-in.o
 .text.fdtdec_next_alias
                0x0000000000000000       0x94 lib/built-in.o
 .text.fdtdec_add_aliases_for_id
                0x0000000000000000      0x254 lib/built-in.o
 .text.fdtdec_find_aliases_for_id
                0x0000000000000000       0x44 lib/built-in.o
 .text.fdtdec_check_fdt
                0x0000000000000000       0x10 lib/built-in.o
 .text.decode_timing_property
                0x0000000000000000       0x80 lib/built-in.o
 .text.fdtdec_get_int_array_count
                0x0000000000000000       0x58 lib/built-in.o
 .text.fdtdec_locate_array
                0x0000000000000000       0x28 lib/built-in.o
 .text.fdtdec_parse_phandle_with_args
                0x0000000000000000      0x15c lib/built-in.o
 .text.fdtdec_get_child_count
                0x0000000000000000       0x34 lib/built-in.o
 .text.fdtdec_get_byte_array
                0x0000000000000000       0x40 lib/built-in.o
 .text.fdtdec_locate_byte_array
                0x0000000000000000       0x24 lib/built-in.o
 .text.fdtdec_get_config_bool
                0x0000000000000000       0x44 lib/built-in.o
 .text.fdtdec_decode_region
                0x0000000000000000       0x54 lib/built-in.o
 .text.fdtdec_read_fmap_entry
                0x0000000000000000       0xd4 lib/built-in.o
 .text.fdtdec_get_addr_size_auto_parent
                0x0000000000000000       0x6c lib/built-in.o
 .text.fdtdec_get_addr_size_auto_noparent
                0x0000000000000000       0x54 lib/built-in.o
 .text.fdtdec_get_addr
                0x0000000000000000        0x8 lib/built-in.o
 .text.fdt_get_named_resource
                0x0000000000000000       0x40 lib/built-in.o
 .text.fdtdec_decode_memory_region
                0x0000000000000000      0x130 lib/built-in.o
 .text.fdtdec_decode_display_timing
                0x0000000000000000      0x2d4 lib/built-in.o
 .text.hmatch_r
                0x0000000000000000       0xa0 lib/built-in.o
 .text.print_freq
                0x0000000000000000      0x1b0 lib/built-in.o
 .text.copy_from_user
                0x0000000000000000       0x10 lib/built-in.o
 .text.kmalloc  0x0000000000000000       0x38 lib/built-in.o
 .text.get_mem  0x0000000000000000       0x1c lib/built-in.o
 .text.kmem_cache_alloc
                0x0000000000000000        0xc lib/built-in.o
 .text.membuff_purge
                0x0000000000000000       0x10 lib/built-in.o
 .text.membuff_putraw
                0x0000000000000000       0xbc lib/built-in.o
 .text.membuff_putbyte
                0x0000000000000000       0x30 lib/built-in.o
 .text.membuff_getraw
                0x0000000000000000       0x98 lib/built-in.o
 .text.membuff_getbyte
                0x0000000000000000       0x34 lib/built-in.o
 .text.membuff_peekbyte
                0x0000000000000000       0x30 lib/built-in.o
 .text.membuff_get
                0x0000000000000000       0x80 lib/built-in.o
 .text.membuff_put
                0x0000000000000000       0x60 lib/built-in.o
 .text.membuff_isempty
                0x0000000000000000       0x18 lib/built-in.o
 .text.membuff_avail
                0x0000000000000000       0x54 lib/built-in.o
 .text.membuff_size
                0x0000000000000000        0xc lib/built-in.o
 .text.membuff_makecontig
                0x0000000000000000       0x80 lib/built-in.o
 .text.membuff_free
                0x0000000000000000       0x30 lib/built-in.o
 .text.membuff_readline
                0x0000000000000000       0xb0 lib/built-in.o
 .text.membuff_extend_by
                0x0000000000000000       0xc4 lib/built-in.o
 .text.membuff_init
                0x0000000000000000       0x18 lib/built-in.o
 .text.membuff_new
                0x0000000000000000       0x38 lib/built-in.o
 .text.membuff_uninit
                0x0000000000000000       0x18 lib/built-in.o
 .text.membuff_dispose
                0x0000000000000000       0x24 lib/built-in.o
 .text.strspn   0x0000000000000000       0x3c lib/built-in.o
 .text.strpbrk  0x0000000000000000       0x44 lib/built-in.o
 .text.strtok   0x0000000000000000       0x78 lib/built-in.o
 .text.strsep   0x0000000000000000       0x38 lib/built-in.o
 .text.strswab  0x0000000000000000       0x48 lib/built-in.o
 .text.memscan  0x0000000000000000       0x2c lib/built-in.o
 .text.memchr_inv
                0x0000000000000000      0x130 lib/built-in.o
 .text.table_compute_checksum
                0x0000000000000000       0x2c lib/built-in.o
 .text.timer_init
                0x0000000000000000        0x8 lib/built-in.o
 .text.rand     0x0000000000000000        0xc lib/built-in.o
 .text.srand    0x0000000000000000       0x10 lib/built-in.o
 .text.vsnprintf
                0x0000000000000000        0x4 lib/built-in.o
 .text.scnprintf
                0x0000000000000000       0x28 lib/built-in.o
 .text.__assert_fail
                0x0000000000000000       0x14 lib/built-in.o
 .text.print_grouped_ull
                0x0000000000000000       0x8c lib/built-in.o
 .text.str2long
                0x0000000000000000       0x3c lib/built-in.o
 .text.strmhz   0x0000000000000000       0x64 lib/built-in.o
 .rodata.z_errmsg
                0x0000000000000000       0x28 lib/built-in.o
 .rodata.fdt_create_empty_tree.str1.1
                0x0000000000000000        0x1 lib/built-in.o
 .rodata.fdt_add_alias_regions.str1.1
                0x0000000000000000        0x8 lib/built-in.o
 .rodata.crc7_syndrome_table
                0x0000000000000000      0x100 lib/built-in.o
 .rodata.sha1_der_prefix
                0x0000000000000000        0xf lib/built-in.o
 .rodata.sha256_der_prefix
                0x0000000000000000       0x13 lib/built-in.o
 .rodata.compat_names
                0x0000000000000000       0x98 lib/built-in.o
 .rodata.fdtdec_decode_display_timing.str1.1
                0x0000000000000000       0xca lib/built-in.o
 .rodata.fdtdec_next_alias.str1.1
                0x0000000000000000        0x7 lib/built-in.o
 .rodata.names.7928
                0x0000000000000000        0x3 lib/built-in.o
 .rodata.__assert_fail.str1.1
                0x0000000000000000       0x22 lib/built-in.o
 .rodata.print_grouped_ull.str1.1
                0x0000000000000000        0xb lib/built-in.o
 .rodata.strmhz.str1.1
                0x0000000000000000        0xb lib/built-in.o
 .data          0x0000000000000000        0x0 lib/built-in.o
 .data.cur      0x0000000000000000        0x4 lib/built-in.o
 .data.current  0x0000000000000000        0x4 lib/built-in.o
 .data.y        0x0000000000000000        0x4 lib/built-in.o
 .bss           0x0000000000000000        0x0 lib/built-in.o
 .bss.___strtok
                0x0000000000000000        0x4 lib/built-in.o
 .text          0x0000000000000000        0x0 net/built-in.o
 .text.add_ip_checksums
                0x0000000000000000       0x3c net/built-in.o
 .text.net_get_udp_handler
                0x0000000000000000       0x10 net/built-in.o
 .text.vlan_to_string
                0x0000000000000000       0x44 net/built-in.o
 .text.getenv_vlan
                0x0000000000000000       0x10 net/built-in.o
 .rodata.vlan_to_string.str1.1
                0x0000000000000000        0x8 net/built-in.o
 .data          0x0000000000000000        0x0 net/built-in.o
 .data.tftp_timeout_ms
                0x0000000000000000        0x4 net/built-in.o
 .bss           0x0000000000000000        0x0 net/built-in.o
 .bss.net_busy_flag
                0x0000000000000000        0x4 net/built-in.o
 .text          0x0000000000000000        0x0 test/dm/built-in.o
 .data          0x0000000000000000        0x0 test/dm/built-in.o
 .bss           0x0000000000000000        0x0 test/dm/built-in.o
 .text          0x0000000000000000        0x0 arch/arm/lib/eabi_compat.o
 .data          0x0000000000000000        0x0 arch/arm/lib/eabi_compat.o
 .bss           0x0000000000000000        0x0 arch/arm/lib/eabi_compat.o
 .text.raise    0x0000000000000000       0x1c arch/arm/lib/eabi_compat.o
 .text.__aeabi_unwind_cpp_pr0
                0x0000000000000000        0x4 arch/arm/lib/eabi_compat.o
 .text.__aeabi_unwind_cpp_pr1
                0x0000000000000000        0x4 arch/arm/lib/eabi_compat.o
 .text.__aeabi_memcpy
                0x0000000000000000        0x4 arch/arm/lib/eabi_compat.o
 .text.__aeabi_memset
                0x0000000000000000       0x10 arch/arm/lib/eabi_compat.o
 .rodata.raise.str1.1
                0x0000000000000000       0x1b arch/arm/lib/eabi_compat.o
 .debug_info    0x0000000000000000      0xc15 arch/arm/lib/eabi_compat.o
 .debug_abbrev  0x0000000000000000      0x26e arch/arm/lib/eabi_compat.o
 .debug_loc     0x0000000000000000      0x108 arch/arm/lib/eabi_compat.o
 .debug_aranges
                0x0000000000000000       0x38 arch/arm/lib/eabi_compat.o
 .debug_ranges  0x0000000000000000       0x28 arch/arm/lib/eabi_compat.o
 .debug_line    0x0000000000000000      0x1a0 arch/arm/lib/eabi_compat.o
 .debug_str     0x0000000000000000      0xa8a arch/arm/lib/eabi_compat.o
 .comment       0x0000000000000000       0x37 arch/arm/lib/eabi_compat.o
 .note.GNU-stack
                0x0000000000000000        0x0 arch/arm/lib/eabi_compat.o
 .debug_frame   0x0000000000000000       0x68 arch/arm/lib/eabi_compat.o
 .ARM.attributes
                0x0000000000000000       0x2d arch/arm/lib/eabi_compat.o
 .text          0x0000000000000000        0x0 arch/arm/lib/lib.a(ashldi3.o)
 .data          0x0000000000000000        0x0 arch/arm/lib/lib.a(ashldi3.o)
 .bss           0x0000000000000000        0x0 arch/arm/lib/lib.a(ashldi3.o)
 .text          0x0000000000000000        0x0 arch/arm/lib/lib.a(lib1funcs.o)
 .data          0x0000000000000000        0x0 arch/arm/lib/lib.a(lib1funcs.o)
 .bss           0x0000000000000000        0x0 arch/arm/lib/lib.a(lib1funcs.o)
 .text.__umodsi3
                0x0000000000000000       0xa0 arch/arm/lib/lib.a(lib1funcs.o)
 .text.__modsi3
                0x0000000000000000       0xb8 arch/arm/lib/lib.a(lib1funcs.o)
 .text          0x0000000000000000        0x0 arch/arm/lib/lib.a(lshrdi3.o)
 .data          0x0000000000000000        0x0 arch/arm/lib/lib.a(lshrdi3.o)
 .bss           0x0000000000000000        0x0 arch/arm/lib/lib.a(lshrdi3.o)
 .text          0x0000000000000000        0x0 arch/arm/lib/lib.a(div0.o)
 .data          0x0000000000000000        0x0 arch/arm/lib/lib.a(div0.o)
 .bss           0x0000000000000000        0x0 arch/arm/lib/lib.a(div0.o)

Memory Configuration

Name             Origin             Length             Attributes
*default*        0x0000000000000000 0xffffffffffffffff

Linker script and memory map

Address of section .text set to 0x400000
                0x0000000000000000                . = 0x0
                0x0000000000000000                . = ALIGN (0x4)

.text           0x0000000000400000    0x3c56c
 *(.__image_copy_start)
 .__image_copy_start
                0x0000000000400000        0x0 arch/arm/lib/built-in.o
                0x0000000000400000                __image_copy_start
 *(.vectors)
 .vectors       0x0000000000400000      0x2e8 arch/arm/lib/built-in.o
                0x0000000000400000                _start
                0x0000000000400020                _undefined_instruction
                0x0000000000400024                _software_interrupt
                0x0000000000400028                _prefetch_abort
                0x000000000040002c                _data_abort
                0x0000000000400030                _not_used
                0x0000000000400034                _irq
                0x0000000000400038                _fiq
                0x0000000000400040                IRQ_STACK_START_IN
 arch/arm/cpu/armv7/start.o(.text*)
 .text          0x00000000004002e8       0xb0 arch/arm/cpu/armv7/start.o
                0x00000000004002e8                reset
                0x00000000004002ec                save_boot_params_ret
                0x0000000000400328                c_runtime_cpu_setup
                0x0000000000400338                save_boot_params
                0x000000000040033c                cpu_init_cp15
                0x0000000000400390                cpu_init_crit
 *(.text*)
 .text          0x0000000000400398      0x148 arch/arm/cpu/armv7/built-in.o
                0x0000000000400398                __v7_flush_dcache_all
                0x000000000040042c                v7_flush_dcache_all
                0x000000000040043c                __v7_invalidate_dcache_all
                0x00000000004004d0                v7_invalidate_dcache_all
 .text.invalidate_icache_all
                0x00000000004004e0       0x18 arch/arm/cpu/armv7/built-in.o
                0x00000000004004e0                invalidate_icache_all
 .text.v7_outer_cache_enable
                0x00000000004004f8        0x4 arch/arm/cpu/armv7/built-in.o
                0x00000000004004f8                v7_outer_cache_enable
 .text.v7_outer_cache_disable
                0x00000000004004fc        0x4 arch/arm/cpu/armv7/built-in.o
                0x00000000004004fc                v7_outer_cache_disable
 .text.v7_outer_cache_flush_all
                0x0000000000400500        0x4 arch/arm/cpu/armv7/built-in.o
                0x0000000000400500                v7_outer_cache_flush_all
 .text.flush_dcache_all
                0x0000000000400504       0x10 arch/arm/cpu/armv7/built-in.o
                0x0000000000400504                flush_dcache_all
 .text.v7_outer_cache_inval_all
                0x0000000000400514        0x4 arch/arm/cpu/armv7/built-in.o
                0x0000000000400514                v7_outer_cache_inval_all
 .text.invalidate_dcache_all
                0x0000000000400518       0x10 arch/arm/cpu/armv7/built-in.o
                0x0000000000400518                invalidate_dcache_all
 .text.arm_init_before_mmu
                0x0000000000400528       0x28 arch/arm/cpu/armv7/built-in.o
                0x0000000000400528                arm_init_before_mmu
 .text.v7_outer_cache_flush_range
                0x0000000000400550        0x4 arch/arm/cpu/armv7/built-in.o
                0x0000000000400550                v7_outer_cache_flush_range
 .text.flush_dcache_range
                0x0000000000400554       0x54 arch/arm/cpu/armv7/built-in.o
                0x0000000000400554                flush_dcache_range
 .text.mmu_page_table_flush
                0x00000000004005a8       0x24 arch/arm/cpu/armv7/built-in.o
                0x00000000004005a8                mmu_page_table_flush
 .text.cpu_cache_initialization
                0x00000000004005cc        0x4 arch/arm/cpu/armv7/built-in.o
                0x00000000004005cc                cpu_cache_initialization
 .text.cleanup_before_linux_select
                0x00000000004005d0       0x4c arch/arm/cpu/armv7/built-in.o
                0x00000000004005d0                cleanup_before_linux_select
 .text.cleanup_before_linux
                0x000000000040061c        0x8 arch/arm/cpu/armv7/built-in.o
                0x000000000040061c                cleanup_before_linux
 *fill*         0x0000000000400624       0x1c 
 .text          0x0000000000400640      0x528 arch/arm/lib/built-in.o
                0x0000000000400640                _main
                0x00000000004006e0                memset
                0x00000000004007bc                memcpy
 .text.relocate_vectors
                0x0000000000400b68       0x70 arch/arm/lib/built-in.o
                0x0000000000400b68                relocate_vectors
                0x0000000000400b74                relocate_code
 .text.arch_fixup_fdt
                0x0000000000400bd8       0x38 arch/arm/lib/built-in.o
                0x0000000000400bd8                arch_fixup_fdt
 .text.boot_prep_linux
                0x0000000000400c10       0x4c arch/arm/lib/built-in.o
 .text.arch_lmb_reserve
                0x0000000000400c5c       0x24 arch/arm/lib/built-in.o
                0x0000000000400c5c                arch_lmb_reserve
 .text.board_quiesce_devices
                0x0000000000400c80        0x4 arch/arm/lib/built-in.o
                0x0000000000400c80                board_quiesce_devices
 .text.boot_jump_linux
                0x0000000000400c84       0xc8 arch/arm/lib/built-in.o
 .text.do_bootm_linux
                0x0000000000400d4c       0x58 arch/arm/lib/built-in.o
                0x0000000000400d4c                do_bootm_linux
 .text.boot_prep_vxworks
                0x0000000000400da4       0x50 arch/arm/lib/built-in.o
                0x0000000000400da4                boot_prep_vxworks
 .text.boot_jump_vxworks
                0x0000000000400df4        0xc arch/arm/lib/built-in.o
                0x0000000000400df4                boot_jump_vxworks
 .text.bootz_setup
                0x0000000000400e00       0xa0 arch/arm/lib/built-in.o
                0x0000000000400e00                bootz_setup
 .text.arch_reserve_stacks
                0x0000000000400ea0       0x1c arch/arm/lib/built-in.o
                0x0000000000400ea0                arch_reserve_stacks
 .text.interrupt_init
                0x0000000000400ebc       0x1c arch/arm/lib/built-in.o
                0x0000000000400ebc                interrupt_init
 .text.enable_interrupts
                0x0000000000400ed8        0x4 arch/arm/lib/built-in.o
                0x0000000000400ed8                enable_interrupts
 .text.disable_interrupts
                0x0000000000400edc        0x8 arch/arm/lib/built-in.o
                0x0000000000400edc                disable_interrupts
 .text.bad_mode
                0x0000000000400ee4       0x10 arch/arm/lib/built-in.o
                0x0000000000400ee4                bad_mode
 .text.show_regs
                0x0000000000400ef4      0x174 arch/arm/lib/built-in.o
                0x0000000000400ef4                show_regs
 .text.do_undefined_instruction
                0x0000000000401068       0x24 arch/arm/lib/built-in.o
                0x0000000000401068                do_undefined_instruction
 .text.do_software_interrupt
                0x000000000040108c       0x24 arch/arm/lib/built-in.o
                0x000000000040108c                do_software_interrupt
 .text.do_prefetch_abort
                0x00000000004010b0       0x24 arch/arm/lib/built-in.o
                0x00000000004010b0                do_prefetch_abort
 .text.do_data_abort
                0x00000000004010d4       0x24 arch/arm/lib/built-in.o
                0x00000000004010d4                do_data_abort
 .text.do_not_used
                0x00000000004010f8       0x24 arch/arm/lib/built-in.o
                0x00000000004010f8                do_not_used
 .text.do_fiq   0x000000000040111c       0x24 arch/arm/lib/built-in.o
                0x000000000040111c                do_fiq
 .text.do_irq   0x0000000000401140       0x24 arch/arm/lib/built-in.o
                0x0000000000401140                do_irq
 .text.reset_misc
                0x0000000000401164        0x4 arch/arm/lib/built-in.o
                0x0000000000401164                reset_misc
 .text.do_reset
                0x0000000000401168       0x30 arch/arm/lib/built-in.o
                0x0000000000401168                do_reset
 .text.flush_cache
                0x0000000000401198        0x8 arch/arm/lib/built-in.o
                0x0000000000401198                flush_cache
 .text.check_cache_range
                0x00000000004011a0       0x38 arch/arm/lib/built-in.o
                0x00000000004011a0                check_cache_range
 .text.cp_delay
                0x00000000004011d8       0x30 arch/arm/lib/built-in.o
 .text.cache_disable
                0x0000000000401208       0x4c arch/arm/lib/built-in.o
 .text.arm_init_domains
                0x0000000000401254        0x4 arch/arm/lib/built-in.o
                0x0000000000401254                arm_init_domains
 .text.set_section_dcache
                0x0000000000401258       0x14 arch/arm/lib/built-in.o
                0x0000000000401258                set_section_dcache
 .text.mmu_set_region_dcache_behaviour
                0x000000000040126c       0x58 arch/arm/lib/built-in.o
                0x000000000040126c                mmu_set_region_dcache_behaviour
 .text.dram_bank_mmu_setup
                0x00000000004012c4       0x44 arch/arm/lib/built-in.o
                0x00000000004012c4                dram_bank_mmu_setup
 .text.icache_enable
                0x0000000000401308       0x1c arch/arm/lib/built-in.o
                0x0000000000401308                icache_enable
 .text.icache_disable
                0x0000000000401324        0x8 arch/arm/lib/built-in.o
                0x0000000000401324                icache_disable
 .text.icache_status
                0x000000000040132c        0xc arch/arm/lib/built-in.o
                0x000000000040132c                icache_status
 .text.dcache_enable
                0x0000000000401338       0x80 arch/arm/lib/built-in.o
                0x0000000000401338                dcache_enable
 .text.dcache_disable
                0x00000000004013b8        0x8 arch/arm/lib/built-in.o
                0x00000000004013b8                dcache_disable
 .text.dcache_status
                0x00000000004013c0        0xc arch/arm/lib/built-in.o
                0x00000000004013c0                dcache_status
 .text          0x00000000004013cc       0x24 arch/arm/mach-zynq/built-in.o
                0x00000000004013cc                lowlevel_init
 .text.timer_init
                0x00000000004013f0       0x70 arch/arm/mach-zynq/built-in.o
                0x00000000004013f0                timer_init
 .text.get_tbclk
                0x0000000000401460        0x8 arch/arm/mach-zynq/built-in.o
                0x0000000000401460                get_tbclk
 .text.arch_cpu_init
                0x0000000000401468       0x7c arch/arm/mach-zynq/built-in.o
                0x0000000000401468                arch_cpu_init
 .text.reset_cpu
                0x00000000004014e4        0xc arch/arm/mach-zynq/built-in.o
                0x00000000004014e4                reset_cpu
 .text.enable_caches
                0x00000000004014f0        0x4 arch/arm/mach-zynq/built-in.o
                0x00000000004014f0                enable_caches
 .text.zynq_ddrc_init
                0x00000000004014f4       0x5c arch/arm/mach-zynq/built-in.o
                0x00000000004014f4                zynq_ddrc_init
 .text.zynq_slcr_lock
                0x0000000000401550       0x30 arch/arm/mach-zynq/built-in.o
                0x0000000000401550                zynq_slcr_lock
 .text.zynq_slcr_unlock
                0x0000000000401580       0x30 arch/arm/mach-zynq/built-in.o
                0x0000000000401580                zynq_slcr_unlock
 .text.zynq_slcr_cpu_reset
                0x00000000004015b0       0x28 arch/arm/mach-zynq/built-in.o
                0x00000000004015b0                zynq_slcr_cpu_reset
 .text.zynq_slcr_gem_clk_setup
                0x00000000004015d8       0x6c arch/arm/mach-zynq/built-in.o
                0x00000000004015d8                zynq_slcr_gem_clk_setup
 .text.zynq_slcr_devcfg_disable
                0x0000000000401644       0x40 arch/arm/mach-zynq/built-in.o
                0x0000000000401644                zynq_slcr_devcfg_disable
 .text.zynq_slcr_devcfg_enable
                0x0000000000401684       0x2c arch/arm/mach-zynq/built-in.o
                0x0000000000401684                zynq_slcr_devcfg_enable
 .text.zynq_slcr_get_idcode
                0x00000000004016b0       0x14 arch/arm/mach-zynq/built-in.o
                0x00000000004016b0                zynq_slcr_get_idcode
 .text.ddr2x_get_rate
                0x00000000004016c4       0x40 arch/arm/mach-zynq/built-in.o
 .text.ddr3x_get_rate
                0x0000000000401704       0x40 arch/arm/mach-zynq/built-in.o
 .text.zynq_clk_periph_get_rate
                0x0000000000401744       0x7c arch/arm/mach-zynq/built-in.o
 .text.__zynq_clk_pll_get_rate
                0x00000000004017c0       0x24 arch/arm/mach-zynq/built-in.o
 .text.zynq_clk_pll_get_rate
                0x00000000004017e4        0x8 arch/arm/mach-zynq/built-in.o
 .text.zynq_clk_periph_set_rate
                0x00000000004017ec      0x130 arch/arm/mach-zynq/built-in.o
 .text.zynq_clk_register_periph_clk
                0x000000000040191c       0x60 arch/arm/mach-zynq/built-in.o
 .text.zynq_clk_early_init
                0x000000000040197c       0x5c arch/arm/mach-zynq/built-in.o
                0x000000000040197c                zynq_clk_early_init
 .text.get_uart_clk
                0x00000000004019d8       0x54 arch/arm/mach-zynq/built-in.o
                0x00000000004019d8                get_uart_clk
 .text.set_cpu_clk_info
                0x0000000000401a2c      0x60c arch/arm/mach-zynq/built-in.o
                0x0000000000401a2c                set_cpu_clk_info
 .text.zynq_clk_set_rate
                0x0000000000402038       0x38 arch/arm/mach-zynq/built-in.o
                0x0000000000402038                zynq_clk_set_rate
 .text.soc_clk_dump
                0x0000000000402070       0x54 arch/arm/mach-zynq/built-in.o
                0x0000000000402070                soc_clk_dump
 .text.board_init
                0x00000000004020c4      0x14c board/xilinx/zynq/built-in.o
                0x00000000004020c4                board_init
 .text.checkboard
                0x0000000000402210       0x18 board/xilinx/zynq/built-in.o
                0x0000000000402210                checkboard
 .text.zynq_board_read_rom_ethaddr
                0x0000000000402228        0x8 board/xilinx/zynq/built-in.o
                0x0000000000402228                zynq_board_read_rom_ethaddr
 .text.dram_init_banksize
                0x0000000000402230        0x4 board/xilinx/zynq/built-in.o
                0x0000000000402230                dram_init_banksize
 .text.dram_init
                0x0000000000402234       0x20 board/xilinx/zynq/built-in.o
                0x0000000000402234                dram_init
 .text.do_bootm
                0x0000000000402254      0x108 cmd/built-in.o
                0x0000000000402254                do_bootm
 .text.do_bootd
                0x000000000040235c       0x20 cmd/built-in.o
                0x000000000040235c                do_bootd
 .text.image_info
                0x000000000040237c      0x11c cmd/built-in.o
 .text.do_iminfo
                0x0000000000402498       0x5c cmd/built-in.o
 .text.bootm_maybe_autostart
                0x00000000004024f4       0x78 cmd/built-in.o
                0x00000000004024f4                bootm_maybe_autostart
 .text.do_help  0x000000000040256c       0x44 cmd/built-in.o
 .text.do_version
                0x00000000004025b0       0x38 cmd/built-in.o
 .text.source   0x00000000004025e8      0x1bc cmd/built-in.o
                0x00000000004025e8                source
 .text.do_source
                0x00000000004027a4       0x70 cmd/built-in.o
 .text.print_num
                0x0000000000402814       0x14 cmd/built-in.o
 .text.do_bdinfo
                0x0000000000402828      0x11c cmd/built-in.o
 .text.bootefi_open_dp
                0x0000000000402944       0x14 cmd/built-in.o
 .text.do_bootefi_exec
                0x0000000000402958      0x2a0 cmd/built-in.o
 .text.do_bootefi
                0x0000000000402bf8       0x8c cmd/built-in.o
 .text.efi_set_bootdev
                0x0000000000402c84      0x130 cmd/built-in.o
                0x0000000000402c84                efi_set_bootdev
 .text.do_bootz
                0x0000000000402db4       0xfc cmd/built-in.o
                0x0000000000402db4                do_bootz
 .text.parse_argv
                0x0000000000402eb0       0x64 cmd/built-in.o
 .text.do_icache
                0x0000000000402f14       0x88 cmd/built-in.o
 .text.do_dcache
                0x0000000000402f9c       0x88 cmd/built-in.o
 .text.do_clk   0x0000000000403024       0x68 cmd/built-in.o
 .text.do_clk_dump
                0x000000000040308c        0x4 cmd/built-in.o
 .text.do_coninfo
                0x0000000000403090       0xb0 cmd/built-in.o
 .text.delete_param_from_memory
                0x0000000000403140       0xbc cmd/built-in.o
 .text.load_data
                0x00000000004031fc      0x138 cmd/built-in.o
                0x00000000004031fc                load_data
 .text.set_param
                0x0000000000403334      0x3a8 cmd/built-in.o
                0x0000000000403334                set_param
 .text.get_hiSkyID
                0x00000000004036dc       0xc4 cmd/built-in.o
 .text.set_rfSettings
                0x00000000004037a0      0x294 cmd/built-in.o
                0x00000000004037a0                set_rfSettings
 .text.set_wfSettings
                0x0000000000403a34       0x7c cmd/built-in.o
                0x0000000000403a34                set_wfSettings
 .text.write_blobA
                0x0000000000403ab0      0x104 cmd/built-in.o
                0x0000000000403ab0                write_blobA
 .text.set_blobA_param
                0x0000000000403bb4      0x298 cmd/built-in.o
                0x0000000000403bb4                set_blobA_param
 .text.set_macAddr
                0x0000000000403e4c      0x160 cmd/built-in.o
                0x0000000000403e4c                set_macAddr
 .text.set_hiSkyId
                0x0000000000403fac       0x58 cmd/built-in.o
                0x0000000000403fac                set_hiSkyId
 .text.print_param
                0x0000000000404004       0x84 cmd/built-in.o
                0x0000000000404004                print_param
 .text.do_hsconf
                0x0000000000404088      0x430 cmd/built-in.o
 .text.do_echo  0x00000000004044b8       0xb4 cmd/built-in.o
 .text.do_exit  0x000000000040456c       0x48 cmd/built-in.o
 .text.do_fat_size
                0x00000000004045b4       0x18 cmd/built-in.o
                0x00000000004045b4                do_fat_size
 .text.do_fat_fsload
                0x00000000004045cc       0x18 cmd/built-in.o
                0x00000000004045cc                do_fat_fsload
 .text.do_fat_ls
                0x00000000004045e4       0x18 cmd/built-in.o
 .text.do_fat_fsinfo
                0x00000000004045fc       0x8c cmd/built-in.o
 .text.do_fat_fswrite
                0x0000000000404688      0x124 cmd/built-in.o
 .text.fdt_valid
                0x00000000004047ac       0xbc cmd/built-in.o
 .text.is_printable_string
                0x0000000000404868       0x88 cmd/built-in.o
 .text.print_data
                0x00000000004048f0      0x170 cmd/built-in.o
 .text.set_working_fdt_addr
                0x0000000000404a60       0x1c cmd/built-in.o
                0x0000000000404a60                set_working_fdt_addr
 .text.do_fdt   0x0000000000404a7c      0xeb0 cmd/built-in.o
 .text.do_fpga  0x000000000040592c      0x368 cmd/built-in.o
                0x000000000040592c                do_fpga
 .text.do_size_wrapper
                0x0000000000405c94       0x18 cmd/built-in.o
 .text.do_load_wrapper
                0x0000000000405cac       0x64 cmd/built-in.o
 .text.do_save_wrapper
                0x0000000000405d10       0x18 cmd/built-in.o
 .text.do_ls_wrapper
                0x0000000000405d28       0x18 cmd/built-in.o
 .text.do_fstype_wrapper
                0x0000000000405d40        0x4 cmd/built-in.o
 .text.evalexp  0x0000000000405d44       0x78 cmd/built-in.o
 .text.evalstr  0x0000000000405dbc       0x64 cmd/built-in.o
 .text.binary_test
                0x0000000000405e20      0x1c0 cmd/built-in.o
 .text.do_itest
                0x0000000000405fe0       0x88 cmd/built-in.o
 .text.bin_data_init
                0x0000000000406068       0x2c cmd/built-in.o
 .text.k_data_save
                0x0000000000406094       0x4c cmd/built-in.o
 .text.k_data_restore
                0x00000000004060e0       0x4c cmd/built-in.o
 .text.write_record
                0x000000000040612c       0x30 cmd/built-in.o
 .text.do_save_serial
                0x000000000040615c      0x194 cmd/built-in.o
                0x000000000040615c                do_save_serial
 .text.getcxmodem
                0x00000000004062f0       0x20 cmd/built-in.o
 .text.load_serial_ymodem
                0x0000000000406310       0xcc cmd/built-in.o
 .text.bin_data_char
                0x00000000004063dc       0x2c cmd/built-in.o
 .text.chk1.constprop.1
                0x0000000000406408       0x30 cmd/built-in.o
 .text.s1_sendpacket.constprop.2
                0x0000000000406438       0x50 cmd/built-in.o
 .text.load_serial
                0x0000000000406488      0x1e4 cmd/built-in.o
 .text.do_load_serial
                0x000000000040666c       0xdc cmd/built-in.o
 .text.do_load_serial_bin
                0x0000000000406748      0x798 cmd/built-in.o
 .text.do_mem_mw
                0x0000000000406ee0       0xc0 cmd/built-in.o
 .text.do_mem_loop
                0x0000000000406fa0       0xec cmd/built-in.o
 .text.do_mem_md
                0x000000000040708c       0xe8 cmd/built-in.o
 .text.do_mem_cmp
                0x0000000000407174      0x154 cmd/built-in.o
 .text.do_mem_base
                0x00000000004072c8       0x40 cmd/built-in.o
 .text.do_mem_cp
                0x0000000000407308       0xd4 cmd/built-in.o
 .text.do_mem_crc
                0x00000000004073dc       0x48 cmd/built-in.o
 .text.mod_mem.isra.0
                0x0000000000407424      0x170 cmd/built-in.o
 .text.do_mem_mm
                0x0000000000407594        0x8 cmd/built-in.o
 .text.do_mem_nm
                0x000000000040759c        0x8 cmd/built-in.o
 .text.extract_range
                0x00000000004075a4       0xe4 cmd/built-in.o
 .text.do_mii   0x0000000000407688      0x90c cmd/built-in.o
 .text.do_mdio  0x0000000000407f94      0x4e4 cmd/built-in.o
 .text.do_sleep
                0x0000000000408478       0xd0 cmd/built-in.o
 .text.do_mmcops
                0x0000000000408548       0xb8 cmd/built-in.o
 .text.init_mmc_device
                0x0000000000408600       0x50 cmd/built-in.o
 .text.do_mmc_rescan
                0x0000000000408650       0x24 cmd/built-in.o
 .text.do_mmc_hwpartition
                0x0000000000408674      0x510 cmd/built-in.o
 .text.do_mmc_list
                0x0000000000408b84       0x14 cmd/built-in.o
 .text.do_mmc_dev
                0x0000000000408b98      0x134 cmd/built-in.o
 .text.do_mmc_part
                0x0000000000408ccc       0x60 cmd/built-in.o
 .text.do_mmc_erase
                0x0000000000408d2c       0xe8 cmd/built-in.o
 .text.do_mmc_write
                0x0000000000408e14      0x100 cmd/built-in.o
 .text.do_mmc_read
                0x0000000000408f14       0xec cmd/built-in.o
 .text.do_mmcinfo
                0x0000000000409000      0x370 cmd/built-in.o
 .text.do_mmc_setdsr
                0x0000000000409370       0xa8 cmd/built-in.o
 .text.netboot_common
                0x0000000000409418      0x2b4 cmd/built-in.o
 .text.do_bootp
                0x00000000004096cc        0xc cmd/built-in.o
 .text.do_tftpput
                0x00000000004096d8        0xc cmd/built-in.o
                0x00000000004096d8                do_tftpput
 .text.do_tftpb
                0x00000000004096e4       0x40 cmd/built-in.o
                0x00000000004096e4                do_tftpb
 .text.do_ping  0x0000000000409724       0x78 cmd/built-in.o
 .text.bytes_per_second
                0x000000000040979c       0x50 cmd/built-in.o
 .text.do_spi_flash
                0x00000000004097ec      0x884 cmd/built-in.o
 .text.do_spi   0x000000000040a070      0x298 cmd/built-in.o
                0x000000000040a070                do_spi
 .text.do_false
                0x000000000040a308        0x8 cmd/built-in.o
 .text.do_true  0x000000000040a310        0x8 cmd/built-in.o
 .text.do_test  0x000000000040a318      0x32c cmd/built-in.o
 .text.do_imgextract
                0x000000000040a644      0x3ac cmd/built-in.o
 .text.do_env_delete
                0x000000000040a9f0       0x9c cmd/built-in.o
 .text.do_env_exists
                0x000000000040aa8c       0x64 cmd/built-in.o
 .text.do_env_save
                0x000000000040aaf0       0x2c cmd/built-in.o
 .text.do_env   0x000000000040ab1c       0x68 cmd/built-in.o
 .text.env_print
                0x000000000040ab84       0xc4 cmd/built-in.o
 .text.do_env_print
                0x000000000040ac48       0xc4 cmd/built-in.o
 .text.do_env_import
                0x000000000040ad0c      0x288 cmd/built-in.o
 .text.do_env_default
                0x000000000040af94       0x9c cmd/built-in.o
 .text._do_env_set.isra.0
                0x000000000040b030      0x1ac cmd/built-in.o
 .text.do_env_set
                0x000000000040b1dc       0x20 cmd/built-in.o
 .text.get_env_id
                0x000000000040b1fc       0x10 cmd/built-in.o
                0x000000000040b1fc                get_env_id
 .text.setenv   0x000000000040b20c       0x60 cmd/built-in.o
                0x000000000040b20c                setenv
 .text.setenv_ulong
                0x000000000040b26c       0x20 cmd/built-in.o
                0x000000000040b26c                setenv_ulong
 .text.setenv_hex
                0x000000000040b28c       0x34 cmd/built-in.o
                0x000000000040b28c                setenv_hex
 .text.do_env_export
                0x000000000040b2c0      0x250 cmd/built-in.o
 .text.envmatch
                0x000000000040b510       0x64 cmd/built-in.o
                0x000000000040b510                envmatch
 .text.getenv_f
                0x000000000040b574       0xcc cmd/built-in.o
                0x000000000040b574                getenv_f
 .text.getenv   0x000000000040b640       0x78 cmd/built-in.o
                0x000000000040b640                getenv
 .text.getenv_hex
                0x000000000040b6b8       0x3c cmd/built-in.o
                0x000000000040b6b8                getenv_hex
 .text.getenv_ulong
                0x000000000040b6f4       0x30 cmd/built-in.o
                0x000000000040b6f4                getenv_ulong
 .text.do_env_edit.part.2
                0x000000000040b724       0xac cmd/built-in.o
 .text.do_env_edit
                0x000000000040b7d0       0x2c cmd/built-in.o
 .text.board_init_f_alloc_reserve
                0x000000000040b7fc        0xc common/built-in.o
                0x000000000040b7fc                board_init_f_alloc_reserve
 .text.board_init_f_init_reserve
                0x000000000040b808       0x20 common/built-in.o
                0x000000000040b808                board_init_f_init_reserve
 .text.show_boot_progress
                0x000000000040b828        0x8 common/built-in.o
                0x000000000040b828                show_boot_progress
 .text.blink_led_ex
                0x000000000040b830       0x30 common/built-in.o
                0x000000000040b830                blink_led_ex
 .text.main_loop
                0x000000000040b860      0x260 common/built-in.o
                0x000000000040b860                main_loop
 .text.dummy    0x000000000040bac0        0x4 common/built-in.o
 .text.get_version
                0x000000000040bac4        0x8 common/built-in.o
                0x000000000040bac4                get_version
 .text.jumptable_init
                0x000000000040bacc      0x1f8 common/built-in.o
                0x000000000040bacc                jumptable_init
 .text.hash_finish_crc32
                0x000000000040bcc4       0x30 common/built-in.o
 .text.hash_update_crc32
                0x000000000040bcf4       0x24 common/built-in.o
 .text.hash_init_crc32
                0x000000000040bd18       0x24 common/built-in.o
 .text.hash_finish_sha256
                0x000000000040bd3c       0x38 common/built-in.o
 .text.hash_update_sha256
                0x000000000040bd74       0x1c common/built-in.o
 .text.hash_init_sha256
                0x000000000040bd90       0x24 common/built-in.o
 .text.hash_finish_sha1
                0x000000000040bdb4       0x38 common/built-in.o
 .text.hash_update_sha1
                0x000000000040bdec       0x1c common/built-in.o
 .text.hash_init_sha1
                0x000000000040be08       0x24 common/built-in.o
 .text.hash_lookup_algo
                0x000000000040be2c       0x54 common/built-in.o
                0x000000000040be2c                hash_lookup_algo
 .text.hash_command
                0x000000000040be80      0x1bc common/built-in.o
                0x000000000040be80                hash_command
 .text.hex_to_val
                0x000000000040c03c       0x40 common/built-in.o
 .text.md5_check
                0x000000000040c07c      0x264 common/built-in.o
                0x000000000040c07c                md5_check
 .text.do_oscheck
                0x000000000040c2e0       0x9c common/built-in.o
                0x000000000040c2e0                do_oscheck
 .text.b_reset  0x000000000040c37c       0x1c common/built-in.o
 .text.static_get
                0x000000000040c398       0x1c common/built-in.o
 .text.file_peek
                0x000000000040c3b4        0xc common/built-in.o
 .text.mapset   0x000000000040c3c0       0x24 common/built-in.o
 .text.syntax_err
                0x000000000040c3e4        0xc common/built-in.o
 .text.free_pipe_list
                0x000000000040c3f0       0xf0 common/built-in.o
 .text.xmalloc  0x000000000040c4e0       0x20 common/built-in.o
 .text.new_pipe
                0x000000000040c500       0x28 common/built-in.o
 .text.xrealloc
                0x000000000040c528       0x20 common/built-in.o
 .text.done_command
                0x000000000040c548       0x88 common/built-in.o
 .text.done_pipe
                0x000000000040c5d0       0x48 common/built-in.o
 .text.done_word
                0x000000000040c618      0x2d4 common/built-in.o
 .text.do_showvar
                0x000000000040c8ec      0x100 common/built-in.o
 .text.is_assignment
                0x000000000040c9ec       0x5c common/built-in.o
 .text.file_get
                0x000000000040ca48      0x1ec common/built-in.o
 .text.b_addchr
                0x000000000040cc34       0x80 common/built-in.o
 .text.b_addqchr
                0x000000000040ccb4       0x50 common/built-in.o
 .text.static_peek
                0x000000000040cd04        0xc common/built-in.o
 .text.get_local_var
                0x000000000040cd10       0x94 common/built-in.o
                0x000000000040cd10                get_local_var
 .text.set_local_var
                0x000000000040cda4      0x1a8 common/built-in.o
                0x000000000040cda4                set_local_var
 .text.insert_var_value_sub
                0x000000000040cf4c      0x2bc common/built-in.o
 .text.parse_string_outer
                0x000000000040d208       0xe8 common/built-in.o
                0x000000000040d208                parse_string_outer
 .text.run_list_real
                0x000000000040d2f0      0x7a8 common/built-in.o
 .text.parse_stream_outer
                0x000000000040da98      0x6b0 common/built-in.o
 .text.parse_file_outer
                0x000000000040e148       0x44 common/built-in.o
                0x000000000040e148                parse_file_outer
 .text.u_boot_hush_start
                0x000000000040e18c       0x54 common/built-in.o
                0x000000000040e18c                u_boot_hush_start
 .text.bootdelay_process
                0x000000000040e1e0       0xbc common/built-in.o
                0x000000000040e1e0                bootdelay_process
 .text.autoboot_command
                0x000000000040e29c       0xf4 common/built-in.o
                0x000000000040e29c                autoboot_command
 .text.print_cpuinfo
                0x000000000040e390        0x8 common/built-in.o
 .text.setup_mon_len
                0x000000000040e398       0x20 common/built-in.o
 .text.reserve_round_4k
                0x000000000040e3b8       0x18 common/built-in.o
 .text.reserve_mmu
                0x000000000040e3d0       0x38 common/built-in.o
                0x000000000040e3d0                reserve_mmu
 .text.reserve_uboot
                0x000000000040e408       0x30 common/built-in.o
 .text.reserve_malloc
                0x000000000040e438       0x14 common/built-in.o
 .text.reserve_global_data
                0x000000000040e44c       0x1c common/built-in.o
 .text.initf_console_record
                0x000000000040e468        0x8 common/built-in.o
 .text.arch_cpu_init_dm
                0x000000000040e470        0x8 common/built-in.o
                0x000000000040e470                arch_cpu_init_dm
 .text.announce_dram_init
                0x000000000040e478       0x18 common/built-in.o
 .text.init_baud_rate
                0x000000000040e490       0x2c common/built-in.o
 .text.mark_bootstage
                0x000000000040e4bc       0x14 common/built-in.o
 .text.initf_dm
                0x000000000040e4d0        0x8 common/built-in.o
 .text.setup_reloc
                0x000000000040e4d8       0x3c common/built-in.o
 .text.reserve_board
                0x000000000040e514       0x40 common/built-in.o
 .text.reserve_arch
                0x000000000040e554        0x8 common/built-in.o
                0x000000000040e554                reserve_arch
 .text.display_text_info
                0x000000000040e55c        0x8 common/built-in.o
 .text.mach_cpu_init
                0x000000000040e564        0x8 common/built-in.o
                0x000000000040e564                mach_cpu_init
 .text.reserve_trace
                0x000000000040e56c        0x8 common/built-in.o
 .text.setup_machine
                0x000000000040e574        0x8 common/built-in.o
 .text.reserve_fdt
                0x000000000040e57c        0x8 common/built-in.o
 .text.display_new_sp
                0x000000000040e584        0x8 common/built-in.o
 .text.reloc_fdt
                0x000000000040e58c        0x8 common/built-in.o
 .text.coloured_LED_init
                0x000000000040e594        0x4 common/built-in.o
                0x000000000040e594                coloured_LED_init
 .text.red_led_on
                0x000000000040e598        0x4 common/built-in.o
                0x000000000040e598                red_led_on
 .text.board_add_ram_info
                0x000000000040e59c        0x4 common/built-in.o
                0x000000000040e59c                board_add_ram_info
 .text.show_dram_config
                0x000000000040e5a0       0x38 common/built-in.o
 .text.setup_dram_config
                0x000000000040e5d8       0x10 common/built-in.o
 .text.board_get_usable_ram_top
                0x000000000040e5e8        0x8 common/built-in.o
                0x000000000040e5e8                board_get_usable_ram_top
 .text.board_reserve_ram_top
                0x000000000040e5f0        0x4 common/built-in.o
                0x000000000040e5f0                board_reserve_ram_top
 .text.setup_dest_addr
                0x000000000040e5f4       0x44 common/built-in.o
 .text.reserve_stacks
                0x000000000040e638       0x1c common/built-in.o
 .text.board_init_f
                0x000000000040e654       0x28 common/built-in.o
                0x000000000040e654                board_init_f
 .text.bootstage_relocate
                0x000000000040e67c        0x8 common/built-in.o
 .text.initr_reloc
                0x000000000040e684       0x18 common/built-in.o
 .text.power_init_board
                0x000000000040e69c        0x8 common/built-in.o
                0x000000000040e69c                power_init_board
 .text.initr_announce
                0x000000000040e6a4        0x8 common/built-in.o
 .text.run_main_loop
                0x000000000040e6ac        0xc common/built-in.o
 .text.initr_net
                0x000000000040e6b8       0x1c common/built-in.o
 .text.initr_ethaddr
                0x000000000040e6d4       0x20 common/built-in.o
 .text.initr_enable_interrupts
                0x000000000040e6f4       0x10 common/built-in.o
 .text.initr_jumptable
                0x000000000040e704       0x10 common/built-in.o
 .text.initr_env
                0x000000000040e714       0x64 common/built-in.o
 .text.initr_mmc
                0x000000000040e778       0x20 common/built-in.o
 .text.initr_serial
                0x000000000040e798       0x10 common/built-in.o
 .text.initr_bootstage
                0x000000000040e7a8       0x14 common/built-in.o
 .text.initr_dm
                0x000000000040e7bc       0x14 common/built-in.o
 .text.initr_malloc
                0x000000000040e7d0       0x1c common/built-in.o
 .text.initr_reloc_global_data
                0x000000000040e7ec       0x48 common/built-in.o
 .text.initr_caches
                0x000000000040e834       0x10 common/built-in.o
 .text.initr_console_record
                0x000000000040e844        0x8 common/built-in.o
 .text.initr_trace
                0x000000000040e84c        0x8 common/built-in.o
 .text.initr_barrier
                0x000000000040e854        0x8 common/built-in.o
 .text.cpu_secondary_init_r
                0x000000000040e85c        0x4 common/built-in.o
                0x000000000040e85c                cpu_secondary_init_r
 .text.initr_secondary_cpu
                0x000000000040e860       0x10 common/built-in.o
 .text.board_init_r
                0x000000000040e870       0x14 common/built-in.o
                0x000000000040e870                board_init_r
 .text.show_board_info
                0x000000000040e884       0x38 common/built-in.o
                0x000000000040e884                show_board_info
 .text.bootm_find_images
                0x000000000040e8bc      0x100 common/built-in.o
                0x000000000040e8bc                bootm_find_images
 .text.bootm_decomp_image
                0x000000000040e9bc      0x140 common/built-in.o
                0x000000000040e9bc                bootm_decomp_image
 .text.bootm_disable_interrupts
                0x000000000040eafc       0x18 common/built-in.o
                0x000000000040eafc                bootm_disable_interrupts
 .text.do_bootm_states
                0x000000000040eb14      0x898 common/built-in.o
                0x000000000040eb14                do_bootm_states
 .text.copy_args
                0x000000000040f3ac       0x50 common/built-in.o
 .text.do_bootm_rtems
                0x000000000040f3fc       0x70 common/built-in.o
 .text.do_bootm_plan9
                0x000000000040f46c       0xd4 common/built-in.o
 .text.do_bootm_standalone
                0x000000000040f540       0x64 common/built-in.o
 .text.do_bootm_netbsd
                0x000000000040f5a4      0x128 common/built-in.o
 .text.do_bootvx_fdt
                0x000000000040f6cc      0x118 common/built-in.o
                0x000000000040f6cc                do_bootvx_fdt
 .text.do_bootm_vxworks
                0x000000000040f7e4       0x54 common/built-in.o
 .text.arch_preboot_os
                0x000000000040f838        0x4 common/built-in.o
                0x000000000040f838                arch_preboot_os
 .text.boot_selected_os
                0x000000000040f83c       0x58 common/built-in.o
                0x000000000040f83c                boot_selected_os
 .text.bootm_os_get_boot_func
                0x000000000040f894       0x10 common/built-in.o
                0x000000000040f894                bootm_os_get_boot_func
 .text.regex_callback
                0x000000000040f8a4      0x12c common/built-in.o
 .text.env_attr_walk
                0x000000000040f9d0      0x120 common/built-in.o
                0x000000000040f9d0                env_attr_walk
 .text.env_attr_lookup
                0x000000000040faf0       0x7c common/built-in.o
                0x000000000040faf0                env_attr_lookup
 .text.clear_callback
                0x000000000040fb6c       0x10 common/built-in.o
 .text.find_env_callback
                0x000000000040fb7c       0x60 common/built-in.o
 .text.on_callbacks
                0x000000000040fbdc       0x50 common/built-in.o
 .text.set_callback
                0x000000000040fc2c       0x98 common/built-in.o
 .text.env_callback_init
                0x000000000040fcc4       0xc4 common/built-in.o
                0x000000000040fcc4                env_callback_init
 .text.skip_num
                0x000000000040fd88       0x94 common/built-in.o
 .text.clear_flags
                0x000000000040fe1c       0x10 common/built-in.o
 .text.on_flags
                0x000000000040fe2c       0x50 common/built-in.o
 .text.env_flags_parse_vartype
                0x000000000040fe7c       0x50 common/built-in.o
                0x000000000040fe7c                env_flags_parse_vartype
 .text.env_flags_parse_varaccess
                0x000000000040fecc       0x50 common/built-in.o
                0x000000000040fecc                env_flags_parse_varaccess
 .text.set_flags
                0x000000000040ff1c       0xb0 common/built-in.o
 .text.eth_validate_ethaddr_str
                0x000000000040ffcc       0x94 common/built-in.o
                0x000000000040ffcc                eth_validate_ethaddr_str
 .text.env_flags_init
                0x0000000000410060       0xd8 common/built-in.o
                0x0000000000410060                env_flags_init
 .text.env_flags_validate
                0x0000000000410138      0x288 common/built-in.o
                0x0000000000410138                env_flags_validate
 .text.saveenv  0x00000000004103c0       0xd8 common/built-in.o
                0x00000000004103c0                saveenv
 .text.env_relocate_spec
                0x0000000000410498       0xcc common/built-in.o
                0x0000000000410498                env_relocate_spec
 .text.env_init
                0x0000000000410564       0x1c common/built-in.o
                0x0000000000410564                env_init
 .text.of_bus_default_map
                0x0000000000410580       0xdc common/built-in.o
 .text.of_bus_default_count_cells
                0x000000000041065c       0x58 common/built-in.o
                0x000000000041065c                of_bus_default_count_cells
 .text.of_bus_default_translate
                0x00000000004106b4       0xa8 common/built-in.o
 .text.fdt_find_and_setprop
                0x000000000041075c       0x70 common/built-in.o
                0x000000000041075c                fdt_find_and_setprop
 .text.fdt_find_or_add_subnode
                0x00000000004107cc       0x60 common/built-in.o
                0x00000000004107cc                fdt_find_or_add_subnode
 .text.fdt_root
                0x000000000041082c       0x90 common/built-in.o
                0x000000000041082c                fdt_root
 .text.fdt_initrd
                0x00000000004108bc      0x1c8 common/built-in.o
                0x00000000004108bc                fdt_initrd
 .text.fdt_chosen
                0x0000000000410a84       0xa8 common/built-in.o
                0x0000000000410a84                fdt_chosen
 .text.do_fixup_by_path
                0x0000000000410b2c       0x54 common/built-in.o
                0x0000000000410b2c                do_fixup_by_path
 .text.fdt_fixup_memory_banks
                0x0000000000410b80      0x1b0 common/built-in.o
                0x0000000000410b80                fdt_fixup_memory_banks
 .text.fdt_fixup_memory
                0x0000000000410d30       0x20 common/built-in.o
                0x0000000000410d30                fdt_fixup_memory
 .text.fdt_fixup_ethernet
                0x0000000000410d50      0x1a8 common/built-in.o
                0x0000000000410d50                fdt_fixup_ethernet
 .text.fdt_shrink_to_minimum
                0x0000000000410ef8       0xd0 common/built-in.o
                0x0000000000410ef8                fdt_shrink_to_minimum
 .text.fdt_translate_address
                0x0000000000410fc8      0x298 common/built-in.o
                0x0000000000410fc8                fdt_translate_address
 .text.miiphy_get_dev_by_name
                0x0000000000411260       0x58 common/built-in.o
                0x0000000000411260                miiphy_get_dev_by_name
 .text.miiphy_init
                0x00000000004112b8       0x24 common/built-in.o
                0x00000000004112b8                miiphy_init
 .text.mdio_alloc
                0x00000000004112dc       0x30 common/built-in.o
                0x00000000004112dc                mdio_alloc
 .text.mdio_free
                0x000000000041130c        0x4 common/built-in.o
                0x000000000041130c                mdio_free
 .text.mdio_register
                0x0000000000411310       0x88 common/built-in.o
                0x0000000000411310                mdio_register
 .text.mdio_register_seq
                0x0000000000411398       0x34 common/built-in.o
                0x0000000000411398                mdio_register_seq
 .text.mdio_unregister
                0x00000000004113cc       0x3c common/built-in.o
                0x00000000004113cc                mdio_unregister
 .text.mdio_list_devices
                0x0000000000411408       0xb0 common/built-in.o
                0x0000000000411408                mdio_list_devices
 .text.miiphy_set_current_dev
                0x00000000004114b8       0x40 common/built-in.o
                0x00000000004114b8                miiphy_set_current_dev
 .text.miiphy_get_active_dev
                0x00000000004114f8       0x54 common/built-in.o
 .text.mdio_get_current_dev
                0x000000000041154c       0x10 common/built-in.o
                0x000000000041154c                mdio_get_current_dev
 .text.mdio_phydev_for_ethname
                0x000000000041155c       0x8c common/built-in.o
                0x000000000041155c                mdio_phydev_for_ethname
 .text.miiphy_get_current_dev
                0x00000000004115e8       0x18 common/built-in.o
                0x00000000004115e8                miiphy_get_current_dev
 .text.miiphy_read
                0x0000000000411600       0x4c common/built-in.o
                0x0000000000411600                miiphy_read
 .text.miiphy_write
                0x000000000041164c       0x40 common/built-in.o
                0x000000000041164c                miiphy_write
 .text.miiphy_listdev
                0x000000000041168c       0x78 common/built-in.o
                0x000000000041168c                miiphy_listdev
 .text.miiphy_info
                0x0000000000411704       0x88 common/built-in.o
                0x0000000000411704                miiphy_info
 .text.miiphy_is_1000base_x
                0x000000000041178c       0x44 common/built-in.o
                0x000000000041178c                miiphy_is_1000base_x
 .text.miiphy_speed
                0x00000000004117d0      0x11c common/built-in.o
                0x00000000004117d0                miiphy_speed
 .text.miiphy_duplex
                0x00000000004118ec      0x144 common/built-in.o
                0x00000000004118ec                miiphy_duplex
 .text.env_get_char_spec
                0x0000000000411a30        0xc common/built-in.o
                0x0000000000411a30                env_get_char_spec
 .text.env_get_addr
                0x0000000000411a3c       0x20 common/built-in.o
                0x0000000000411a3c                env_get_addr
 .text.env_get_char_memory
                0x0000000000411a5c       0x10 common/built-in.o
                0x0000000000411a5c                env_get_char_memory
 .text.env_get_char
                0x0000000000411a6c       0x30 common/built-in.o
                0x0000000000411a6c                env_get_char
 .text.getenv_yesno
                0x0000000000411a9c       0x3c common/built-in.o
                0x0000000000411a9c                getenv_yesno
 .text.getenv_default
                0x0000000000411ad8       0x30 common/built-in.o
                0x0000000000411ad8                getenv_default
 .text.set_default_env
                0x0000000000411b08       0xcc common/built-in.o
                0x0000000000411b08                set_default_env
 .text.set_default_vars
                0x0000000000411bd4       0x38 common/built-in.o
                0x0000000000411bd4                set_default_vars
 .text.env_import
                0x0000000000411c0c       0xe0 common/built-in.o
                0x0000000000411c0c                env_import
 .text.env_export
                0x0000000000411cec       0xa4 common/built-in.o
                0x0000000000411cec                env_export
 .text.env_relocate
                0x0000000000411d90       0x2c common/built-in.o
                0x0000000000411d90                env_relocate
 .text.console_setfile
                0x0000000000411dbc       0xbc common/built-in.o
 .text.serial_printf
                0x0000000000411e78       0x48 common/built-in.o
                0x0000000000411e78                serial_printf
 .text.putc     0x0000000000411ec0       0x34 common/built-in.o
                0x0000000000411ec0                putc
 .text.puts     0x0000000000411ef4       0x34 common/built-in.o
                0x0000000000411ef4                puts
 .text.fgetc    0x0000000000411f28       0x24 common/built-in.o
                0x0000000000411f28                fgetc
 .text.getc     0x0000000000411f4c       0x24 common/built-in.o
                0x0000000000411f4c                getc
 .text.ftstc    0x0000000000411f70       0x24 common/built-in.o
                0x0000000000411f70                ftstc
 .text.tstc     0x0000000000411f94       0x24 common/built-in.o
                0x0000000000411f94                tstc
 .text.ctrlc    0x0000000000411fb8       0x58 common/built-in.o
                0x0000000000411fb8                ctrlc
 .text.disable_ctrlc
                0x0000000000412010       0x18 common/built-in.o
                0x0000000000412010                disable_ctrlc
 .text.had_ctrlc
                0x0000000000412028       0x10 common/built-in.o
                0x0000000000412028                had_ctrlc
 .text.clear_ctrlc
                0x0000000000412038       0x14 common/built-in.o
                0x0000000000412038                clear_ctrlc
 .text.search_device
                0x000000000041204c       0x28 common/built-in.o
                0x000000000041204c                search_device
 .text.console_assign
                0x0000000000412074       0x40 common/built-in.o
                0x0000000000412074                console_assign
 .text.on_console
                0x00000000004120b4       0xb8 common/built-in.o
 .text.console_init_f
                0x000000000041216c       0x10 common/built-in.o
                0x000000000041216c                console_init_f
 .text.stdio_print_current_devices
                0x000000000041217c       0xb0 common/built-in.o
                0x000000000041217c                stdio_print_current_devices
 .text.console_init_r
                0x000000000041222c      0x17c common/built-in.o
                0x000000000041222c                console_init_r
 .text.sbrk     0x00000000004123a8       0x6c common/built-in.o
                0x00000000004123a8                sbrk
 .text.mem_malloc_init
                0x0000000000412414       0x34 common/built-in.o
                0x0000000000412414                mem_malloc_init
 .text.malloc_trim
                0x0000000000412448       0xd0 common/built-in.o
                0x0000000000412448                malloc_trim
 .text.free     0x0000000000412518      0x240 common/built-in.o
                0x0000000000412518                free
 .text.malloc   0x0000000000412758      0x610 common/built-in.o
                0x0000000000412758                malloc
 .text.calloc   0x0000000000412d68      0x140 common/built-in.o
                0x0000000000412d68                calloc
 .text.realloc  0x0000000000412ea8      0x43c common/built-in.o
                0x0000000000412ea8                realloc
 .text.memalign
                0x00000000004132e4      0x170 common/built-in.o
                0x00000000004132e4                memalign
 .text.initf_malloc
                0x0000000000413454       0x18 common/built-in.o
                0x0000000000413454                initf_malloc
 .text.malloc_simple
                0x000000000041346c       0x30 common/built-in.o
                0x000000000041346c                malloc_simple
 .text.on_loadaddr
                0x000000000041349c       0x40 common/built-in.o
 .text.image_check_hcrc
                0x00000000004134dc       0x4c common/built-in.o
                0x00000000004134dc                image_check_hcrc
 .text.image_check_dcrc
                0x0000000000413528       0x38 common/built-in.o
                0x0000000000413528                image_check_dcrc
 .text.image_multi_count
                0x0000000000413560       0x20 common/built-in.o
                0x0000000000413560                image_multi_count
 .text.image_multi_getimg
                0x0000000000413580       0x80 common/built-in.o
                0x0000000000413580                image_multi_getimg
 .text.getenv_bootm_low
                0x0000000000413600       0x34 common/built-in.o
                0x0000000000413600                getenv_bootm_low
 .text.getenv_bootm_size
                0x0000000000413634       0x68 common/built-in.o
                0x0000000000413634                getenv_bootm_size
 .text.getenv_bootm_mapsize
                0x000000000041369c       0x30 common/built-in.o
                0x000000000041369c                getenv_bootm_mapsize
 .text.memmove_wd
                0x00000000004136cc        0xc common/built-in.o
                0x00000000004136cc                memmove_wd
 .text.genimg_print_size
                0x00000000004136d8       0x30 common/built-in.o
                0x00000000004136d8                genimg_print_size
 .text.get_table_entry
                0x0000000000413708       0x24 common/built-in.o
                0x0000000000413708                get_table_entry
 .text.get_table_entry_name
                0x000000000041372c       0x20 common/built-in.o
                0x000000000041372c                get_table_entry_name
 .text.genimg_get_os_name
                0x000000000041374c       0x18 common/built-in.o
                0x000000000041374c                genimg_get_os_name
 .text.genimg_get_arch_name
                0x0000000000413764       0x18 common/built-in.o
                0x0000000000413764                genimg_get_arch_name
 .text.genimg_get_type_name
                0x000000000041377c       0x18 common/built-in.o
                0x000000000041377c                genimg_get_type_name
 .text.genimg_get_comp_name
                0x0000000000413794       0x18 common/built-in.o
                0x0000000000413794                genimg_get_comp_name
 .text.image_print_contents
                0x00000000004137ac      0x1b0 common/built-in.o
                0x00000000004137ac                image_print_contents
 .text.get_table_entry_id
                0x000000000041395c       0x4c common/built-in.o
                0x000000000041395c                get_table_entry_id
 .text.genimg_get_os_id
                0x00000000004139a8       0x18 common/built-in.o
                0x00000000004139a8                genimg_get_os_id
 .text.genimg_get_arch_id
                0x00000000004139c0       0x18 common/built-in.o
                0x00000000004139c0                genimg_get_arch_id
 .text.genimg_get_type_id
                0x00000000004139d8       0x18 common/built-in.o
                0x00000000004139d8                genimg_get_type_id
 .text.genimg_get_comp_id
                0x00000000004139f0       0x18 common/built-in.o
                0x00000000004139f0                genimg_get_comp_id
 .text.genimg_get_kernel_addr_fit
                0x0000000000413a08       0x70 common/built-in.o
                0x0000000000413a08                genimg_get_kernel_addr_fit
 .text.genimg_get_format
                0x0000000000413a78       0x34 common/built-in.o
                0x0000000000413a78                genimg_get_format
 .text.genimg_get_image
                0x0000000000413aac        0x4 common/built-in.o
                0x0000000000413aac                genimg_get_image
 .text.genimg_has_config
                0x0000000000413ab0       0x10 common/built-in.o
                0x0000000000413ab0                genimg_has_config
 .text.boot_get_ramdisk
                0x0000000000413ac0      0x330 common/built-in.o
                0x0000000000413ac0                boot_get_ramdisk
 .text.boot_ramdisk_high
                0x0000000000413df0      0x130 common/built-in.o
                0x0000000000413df0                boot_ramdisk_high
 .text.boot_get_setup
                0x0000000000413f20        0x4 common/built-in.o
                0x0000000000413f20                boot_get_setup
 .text.boot_get_fpga
                0x0000000000413f24      0x174 common/built-in.o
                0x0000000000413f24                boot_get_fpga
 .text.boot_get_loadable
                0x0000000000414098      0x180 common/built-in.o
                0x0000000000414098                boot_get_loadable
 .text.image_setup_linux
                0x0000000000414218       0x88 common/built-in.o
                0x0000000000414218                image_setup_linux
 .text.fdt_error
                0x00000000004142a0       0x2c common/built-in.o
 .text.boot_fdt_add_mem_rsv_regions
                0x00000000004142cc       0x8c common/built-in.o
                0x00000000004142cc                boot_fdt_add_mem_rsv_regions
 .text.boot_relocate_fdt
                0x0000000000414358      0x194 common/built-in.o
                0x0000000000414358                boot_relocate_fdt
 .text.boot_get_fdt
                0x00000000004144ec      0x3a8 common/built-in.o
                0x00000000004144ec                boot_get_fdt
 .text.ft_verify_fdt
                0x0000000000414894        0x8 common/built-in.o
                0x0000000000414894                ft_verify_fdt
 .text.image_setup_libfdt
                0x000000000041489c      0x110 common/built-in.o
                0x000000000041489c                image_setup_libfdt
 .text.fit_image_get_address
                0x00000000004149ac       0x64 common/built-in.o
 .text.fit_parse_conf
                0x0000000000414a10       0x64 common/built-in.o
                0x0000000000414a10                fit_parse_conf
 .text.fit_parse_subimage
                0x0000000000414a74       0x64 common/built-in.o
                0x0000000000414a74                fit_parse_subimage
 .text.fit_get_desc
                0x0000000000414ad8       0x30 common/built-in.o
                0x0000000000414ad8                fit_get_desc
 .text.fit_image_get_node
                0x0000000000414b08       0x30 common/built-in.o
                0x0000000000414b08                fit_image_get_node
 .text.fit_image_get_os
                0x0000000000414b38       0x3c common/built-in.o
                0x0000000000414b38                fit_image_get_os
 .text.fit_image_get_arch
                0x0000000000414b74       0x3c common/built-in.o
                0x0000000000414b74                fit_image_get_arch
 .text.fit_image_get_type
                0x0000000000414bb0       0x3c common/built-in.o
                0x0000000000414bb0                fit_image_get_type
 .text.fit_image_get_comp
                0x0000000000414bec       0x3c common/built-in.o
                0x0000000000414bec                fit_image_get_comp
 .text.fit_image_get_load
                0x0000000000414c28       0x10 common/built-in.o
                0x0000000000414c28                fit_image_get_load
 .text.fit_image_get_entry
                0x0000000000414c38       0x10 common/built-in.o
                0x0000000000414c38                fit_image_get_entry
 .text.fit_image_get_data
                0x0000000000414c48       0x40 common/built-in.o
                0x0000000000414c48                fit_image_get_data
 .text.fit_image_hash_get_algo
                0x0000000000414c88       0x30 common/built-in.o
                0x0000000000414c88                fit_image_hash_get_algo
 .text.fit_image_hash_get_value
                0x0000000000414cb8       0x40 common/built-in.o
                0x0000000000414cb8                fit_image_hash_get_value
 .text.fit_image_print_data
                0x0000000000414cf8      0x144 common/built-in.o
 .text.fit_image_print
                0x0000000000414e3c      0x34c common/built-in.o
                0x0000000000414e3c                fit_image_print
 .text.fit_get_end
                0x0000000000415188       0x10 common/built-in.o
                0x0000000000415188                fit_get_end
 .text.calculate_hash
                0x0000000000415198       0xf8 common/built-in.o
                0x0000000000415198                calculate_hash
 .text.fit_image_verify
                0x0000000000415290      0x21c common/built-in.o
                0x0000000000415290                fit_image_verify
 .text.fit_all_image_verify
                0x00000000004154ac       0xfc common/built-in.o
                0x00000000004154ac                fit_all_image_verify
 .text.fit_image_check_os
                0x00000000004155a8       0x30 common/built-in.o
                0x00000000004155a8                fit_image_check_os
 .text.fit_image_check_arch
                0x00000000004155d8       0x44 common/built-in.o
                0x00000000004155d8                fit_image_check_arch
 .text.fit_image_check_type
                0x000000000041561c       0x30 common/built-in.o
                0x000000000041561c                fit_image_check_type
 .text.fit_image_check_comp
                0x000000000041564c       0x30 common/built-in.o
                0x000000000041564c                fit_image_check_comp
 .text.fit_check_format
                0x000000000041567c       0x40 common/built-in.o
                0x000000000041567c                fit_check_format
 .text.fit_conf_get_node
                0x00000000004156bc       0x6c common/built-in.o
                0x00000000004156bc                fit_conf_get_node
 .text.fit_conf_get_prop_node
                0x0000000000415728       0x2c common/built-in.o
                0x0000000000415728                fit_conf_get_prop_node
 .text.fit_conf_print
                0x0000000000415754      0x19c common/built-in.o
                0x0000000000415754                fit_conf_print
 .text.fit_print_contents
                0x00000000004158f0      0x204 common/built-in.o
                0x00000000004158f0                fit_print_contents
 .text.fit_get_node_from_config
                0x0000000000415af4       0x40 common/built-in.o
                0x0000000000415af4                fit_get_node_from_config
 .text.fit_image_load
                0x0000000000415b34      0x580 common/built-in.o
                0x0000000000415b34                fit_image_load
 .text.boot_get_setup_fit
                0x00000000004160b4       0x6c common/built-in.o
                0x00000000004160b4                boot_get_setup_fit
 .text.get_effective_memsize
                0x0000000000416120        0x8 common/built-in.o
                0x0000000000416120                get_effective_memsize
 .text.stdio_serial_tstc
                0x0000000000416128        0x4 common/built-in.o
 .text.stdio_serial_getc
                0x000000000041612c        0x4 common/built-in.o
 .text.stdio_serial_puts
                0x0000000000416130        0x8 common/built-in.o
 .text.stdio_serial_putc
                0x0000000000416138        0x8 common/built-in.o
 .text.stdio_get_list
                0x0000000000416140        0xc common/built-in.o
                0x0000000000416140                stdio_get_list
 .text.stdio_get_by_name
                0x000000000041614c       0x4c common/built-in.o
                0x000000000041614c                stdio_get_by_name
 .text.stdio_clone
                0x0000000000416198       0x38 common/built-in.o
                0x0000000000416198                stdio_clone
 .text.stdio_register_dev
                0x00000000004161d0       0x50 common/built-in.o
                0x00000000004161d0                stdio_register_dev
 .text.stdio_register
                0x0000000000416220        0x8 common/built-in.o
                0x0000000000416220                stdio_register
 .text.stdio_init_tables
                0x0000000000416228       0x1c common/built-in.o
                0x0000000000416228                stdio_init_tables
 .text.stdio_add_devices
                0x0000000000416244       0x7c common/built-in.o
                0x0000000000416244                stdio_add_devices
 .text.run_command
                0x00000000004162c0       0x10 common/built-in.o
                0x00000000004162c0                run_command
 .text.run_command_list
                0x00000000004162d0       0x7c common/built-in.o
                0x00000000004162d0                run_command_list
 .text.do_run   0x000000000041634c       0x74 common/built-in.o
                0x000000000041634c                do_run
 .text.cli_process_fdt
                0x00000000004163c0       0x40 common/built-in.o
                0x00000000004163c0                cli_process_fdt
 .text.cli_secure_boot_cmd
                0x0000000000416400       0x78 common/built-in.o
                0x0000000000416400                cli_secure_boot_cmd
 .text.cli_loop
                0x0000000000416478        0xc common/built-in.o
                0x0000000000416478                cli_loop
 .text.cli_init
                0x0000000000416484        0x4 common/built-in.o
                0x0000000000416484                cli_init
 .text.delete_char.part.0
                0x0000000000416488       0xd4 common/built-in.o
 .text.cread_add_char
                0x000000000041655c       0xe8 common/built-in.o
 .text.cli_readline_into_buffer
                0x0000000000416644      0x95c common/built-in.o
                0x0000000000416644                cli_readline_into_buffer
 .text.cli_readline
                0x0000000000416fa0       0x14 common/built-in.o
                0x0000000000416fa0                cli_readline
 .text.find_cmd_tbl
                0x0000000000416fb4       0xa0 common/built-in.o
                0x0000000000416fb4                find_cmd_tbl
 .text.find_cmd
                0x0000000000417054       0x28 common/built-in.o
                0x0000000000417054                find_cmd
 .text.cmd_usage
                0x000000000041707c       0x5c common/built-in.o
                0x000000000041707c                cmd_usage
 .text._do_help
                0x00000000004170d8      0x188 common/built-in.o
                0x00000000004170d8                _do_help
 .text.cmd_get_data_size
                0x0000000000417260       0x50 common/built-in.o
                0x0000000000417260                cmd_get_data_size
 .text.cmd_process
                0x00000000004172b0       0xec common/built-in.o
                0x00000000004172b0                cmd_process
 .text.cmd_process_error
                0x000000000041739c       0x30 common/built-in.o
                0x000000000041739c                cmd_process_error
 .text.hex1_bin
                0x00000000004173cc       0x40 common/built-in.o
 .text.hex2_bin
                0x000000000041740c       0x38 common/built-in.o
 .text.srec_decode
                0x0000000000417444      0x24c common/built-in.o
                0x0000000000417444                srec_decode
 .text.CYGACC_COMM_IF_GETC_TIMEOUT.isra.0
                0x0000000000417690       0x4c common/built-in.o
 .text.xyzModem_flush
                0x00000000004176dc       0x1c common/built-in.o
 .text.xyzModem_get_hdr
                0x00000000004176f8      0x220 common/built-in.o
 .text.xyzModem_stream_open
                0x0000000000417918      0x228 common/built-in.o
                0x0000000000417918                xyzModem_stream_open
 .text.xyzModem_stream_read
                0x0000000000417b40      0x248 common/built-in.o
                0x0000000000417b40                xyzModem_stream_read
 .text.xyzModem_stream_close
                0x0000000000417d88       0x54 common/built-in.o
                0x0000000000417d88                xyzModem_stream_close
 .text.xyzModem_stream_terminate
                0x0000000000417ddc       0x94 common/built-in.o
                0x0000000000417ddc                xyzModem_stream_terminate
 .text.xyzModem_error
                0x0000000000417e70       0x20 common/built-in.o
                0x0000000000417e70                xyzModem_error
 .text.blk_get_dev
                0x0000000000417e90       0x30 disk/built-in.o
                0x0000000000417e90                blk_get_dev
 .text.dev_print
                0x0000000000417ec0      0x218 disk/built-in.o
                0x0000000000417ec0                dev_print
 .text.part_init
                0x00000000004180d8       0x54 disk/built-in.o
                0x00000000004180d8                part_init
 .text.part_print
                0x000000000041812c      0x128 disk/built-in.o
                0x000000000041812c                part_print
 .text.part_get_info
                0x0000000000418254       0x64 disk/built-in.o
                0x0000000000418254                part_get_info
 .text.blk_get_device_by_str
                0x00000000004182b8      0x154 disk/built-in.o
                0x00000000004182b8                blk_get_device_by_str
 .text.blk_get_device_part_str
                0x000000000041840c      0x3e8 disk/built-in.o
                0x000000000041840c                blk_get_device_part_str
 .text.part_set_generic_name
                0x00000000004187f4       0x4c disk/built-in.o
                0x00000000004187f4                part_set_generic_name
 .text.test_block_type
                0x0000000000418840       0x84 disk/built-in.o
 .text.print_partition_extended
                0x00000000004188c4      0x26c disk/built-in.o
 .text.part_print_dos
                0x0000000000418b30       0x34 disk/built-in.o
                0x0000000000418b30                part_print_dos
 .text.part_test_dos
                0x0000000000418b64       0x5c disk/built-in.o
 .text.part_get_info_extended.constprop.1
                0x0000000000418bc0      0x260 disk/built-in.o
 .text.part_get_info_dos
                0x0000000000418e20       0x20 disk/built-in.o
                0x0000000000418e20                part_get_info_dos
 .text.device_bind_common.isra.0
                0x0000000000418e40      0x348 drivers/built-in.o
 .text.alloc_priv
                0x0000000000419188       0x44 drivers/built-in.o
 .text.device_bind_with_driver_data
                0x00000000004191cc       0x24 drivers/built-in.o
                0x00000000004191cc                device_bind_with_driver_data
 .text.device_bind
                0x00000000004191f0       0x28 drivers/built-in.o
                0x00000000004191f0                device_bind
 .text.device_bind_by_name
                0x0000000000419218       0x68 drivers/built-in.o
                0x0000000000419218                device_bind_by_name
 .text.device_probe
                0x0000000000419280      0x21c drivers/built-in.o
                0x0000000000419280                device_probe
 .text.dev_get_platdata
                0x000000000041949c       0x30 drivers/built-in.o
                0x000000000041949c                dev_get_platdata
 .text.dev_get_parent_platdata
                0x00000000004194cc       0x30 drivers/built-in.o
                0x00000000004194cc                dev_get_parent_platdata
 .text.dev_get_uclass_platdata
                0x00000000004194fc       0x30 drivers/built-in.o
                0x00000000004194fc                dev_get_uclass_platdata
 .text.dev_get_priv
                0x000000000041952c       0x30 drivers/built-in.o
                0x000000000041952c                dev_get_priv
 .text.dev_get_uclass_priv
                0x000000000041955c       0x30 drivers/built-in.o
                0x000000000041955c                dev_get_uclass_priv
 .text.dev_get_parent_priv
                0x000000000041958c       0x30 drivers/built-in.o
                0x000000000041958c                dev_get_parent_priv
 .text.device_find_first_child
                0x00000000004195bc       0x1c drivers/built-in.o
                0x00000000004195bc                device_find_first_child
 .text.device_find_next_child
                0x00000000004195d8       0x28 drivers/built-in.o
                0x00000000004195d8                device_find_next_child
 .text.dev_get_parent
                0x0000000000419600        0x8 drivers/built-in.o
                0x0000000000419600                dev_get_parent
 .text.device_get_uclass_id
                0x0000000000419608       0x10 drivers/built-in.o
                0x0000000000419608                device_get_uclass_id
 .text.dev_get_addr_index
                0x0000000000419618       0xac drivers/built-in.o
                0x0000000000419618                dev_get_addr_index
 .text.dev_get_addr
                0x00000000004196c4        0x8 drivers/built-in.o
                0x00000000004196c4                dev_get_addr
 .text.device_set_name_alloced
                0x00000000004196cc       0x10 drivers/built-in.o
                0x00000000004196cc                device_set_name_alloced
 .text.lists_driver_lookup_name
                0x00000000004196dc       0x48 drivers/built-in.o
                0x00000000004196dc                lists_driver_lookup_name
 .text.lists_uclass_lookup
                0x0000000000419724       0x38 drivers/built-in.o
                0x0000000000419724                lists_uclass_lookup
 .text.lists_bind_drivers
                0x000000000041975c       0x8c drivers/built-in.o
                0x000000000041975c                lists_bind_drivers
 .text.device_bind_driver_to_node
                0x00000000004197e8       0x48 drivers/built-in.o
                0x00000000004197e8                device_bind_driver_to_node
 .text.device_bind_driver
                0x0000000000419830       0x18 drivers/built-in.o
                0x0000000000419830                device_bind_driver
 .text.lists_bind_fdt
                0x0000000000419848      0x190 drivers/built-in.o
                0x0000000000419848                lists_bind_fdt
 .text.dm_root  0x00000000004199d8       0x2c drivers/built-in.o
                0x00000000004199d8                dm_root
 .text.dm_get_translation_offset
                0x0000000000419a04       0x14 drivers/built-in.o
                0x0000000000419a04                dm_get_translation_offset
 .text.dm_init  0x0000000000419a18       0x60 drivers/built-in.o
                0x0000000000419a18                dm_init
 .text.dm_scan_platdata
                0x0000000000419a78       0x2c drivers/built-in.o
                0x0000000000419a78                dm_scan_platdata
 .text.dm_scan_fdt_node
                0x0000000000419aa4       0xcc drivers/built-in.o
                0x0000000000419aa4                dm_scan_fdt_node
 .text.dm_scan_fdt_dev
                0x0000000000419b70       0x28 drivers/built-in.o
                0x0000000000419b70                dm_scan_fdt_dev
 .text.dm_scan_fdt
                0x0000000000419b98       0x18 drivers/built-in.o
                0x0000000000419b98                dm_scan_fdt
 .text.dm_scan_other
                0x0000000000419bb0        0x8 drivers/built-in.o
                0x0000000000419bb0                dm_scan_other
 .text.dm_init_and_scan
                0x0000000000419bb8       0x44 drivers/built-in.o
                0x0000000000419bb8                dm_init_and_scan
 .text.uclass_find
                0x0000000000419bfc       0x4c drivers/built-in.o
                0x0000000000419bfc                uclass_find
 .text.uclass_get
                0x0000000000419c48      0x118 drivers/built-in.o
                0x0000000000419c48                uclass_get
 .text.uclass_find_device
                0x0000000000419d60       0x74 drivers/built-in.o
                0x0000000000419d60                uclass_find_device
 .text.uclass_find_first_device
                0x0000000000419dd4       0x3c drivers/built-in.o
                0x0000000000419dd4                uclass_find_first_device
 .text.uclass_find_next_device
                0x0000000000419e10       0x2c drivers/built-in.o
                0x0000000000419e10                uclass_find_next_device
 .text.uclass_find_device_by_seq
                0x0000000000419e3c       0x7c drivers/built-in.o
                0x0000000000419e3c                uclass_find_device_by_seq
 .text.uclass_find_device_by_of_offset
                0x0000000000419eb8       0x68 drivers/built-in.o
                0x0000000000419eb8                uclass_find_device_by_of_offset
 .text.uclass_get_device_tail
                0x0000000000419f20       0x30 drivers/built-in.o
                0x0000000000419f20                uclass_get_device_tail
 .text.uclass_get_device
                0x0000000000419f50       0x30 drivers/built-in.o
                0x0000000000419f50                uclass_get_device
 .text.uclass_get_device_by_seq
                0x0000000000419f80       0x54 drivers/built-in.o
                0x0000000000419f80                uclass_get_device_by_seq
 .text.uclass_get_device_by_of_offset
                0x0000000000419fd4       0x30 drivers/built-in.o
                0x0000000000419fd4                uclass_get_device_by_of_offset
 .text.uclass_first_device
                0x000000000041a004       0x38 drivers/built-in.o
                0x000000000041a004                uclass_first_device
 .text.uclass_next_device
                0x000000000041a03c       0x40 drivers/built-in.o
                0x000000000041a03c                uclass_next_device
 .text.uclass_bind_device
                0x000000000041a07c       0x7c drivers/built-in.o
                0x000000000041a07c                uclass_bind_device
 .text.uclass_unbind_device
                0x000000000041a0f8       0x4c drivers/built-in.o
                0x000000000041a0f8                uclass_unbind_device
 .text.uclass_resolve_seq
                0x000000000041a144       0xb4 drivers/built-in.o
                0x000000000041a144                uclass_resolve_seq
 .text.uclass_pre_probe_device
                0x000000000041a1f8       0x64 drivers/built-in.o
                0x000000000041a1f8                uclass_pre_probe_device
 .text.uclass_post_probe_device
                0x000000000041a25c       0x20 drivers/built-in.o
                0x000000000041a25c                uclass_post_probe_device
 .text.uclass_pre_remove_device
                0x000000000041a27c       0x20 drivers/built-in.o
                0x000000000041a27c                uclass_pre_remove_device
 .text.dm_warn  0x000000000041a29c       0x28 drivers/built-in.o
                0x000000000041a29c                dm_warn
 .text.device_unbind
                0x000000000041a2c4      0x144 drivers/built-in.o
                0x000000000041a2c4                device_unbind
 .text.device_free
                0x000000000041a408       0x90 drivers/built-in.o
                0x000000000041a408                device_free
 .text.device_remove
                0x000000000041a498      0x128 drivers/built-in.o
                0x000000000041a498                device_remove
 .text.simple_bus_post_bind
                0x000000000041a5c0       0x64 drivers/built-in.o
 .text.show_devices
                0x000000000041a624      0x100 drivers/built-in.o
 .text.dm_dump_all
                0x000000000041a724       0x3c drivers/built-in.o
                0x000000000041a724                dm_dump_all
 .text.dm_dump_uclass
                0x000000000041a760       0xec drivers/built-in.o
                0x000000000041a760                dm_dump_uclass
 .text.blk_get_devnum_by_typename
                0x000000000041a84c       0xe8 drivers/built-in.o
                0x000000000041a84c                blk_get_devnum_by_typename
 .text.blk_select_hwpart
                0x000000000041a934       0x30 drivers/built-in.o
                0x000000000041a934                blk_select_hwpart
 .text.blk_dselect_hwpart
                0x000000000041a964        0x8 drivers/built-in.o
                0x000000000041a964                blk_dselect_hwpart
 .text.blk_get_device
                0x000000000041a96c       0x88 drivers/built-in.o
                0x000000000041a96c                blk_get_device
 .text.blk_get_devnum_by_type
                0x000000000041a9f4       0x28 drivers/built-in.o
                0x000000000041a9f4                blk_get_devnum_by_type
 .text.blk_select_hwpart_devnum
                0x000000000041aa1c       0x2c drivers/built-in.o
                0x000000000041aa1c                blk_select_hwpart_devnum
 .text.blk_dread
                0x000000000041aa48       0x30 drivers/built-in.o
                0x000000000041aa48                blk_dread
 .text.blk_dwrite
                0x000000000041aa78       0x30 drivers/built-in.o
                0x000000000041aa78                blk_dwrite
 .text.blk_derase
                0x000000000041aaa8       0x24 drivers/built-in.o
                0x000000000041aaa8                blk_derase
 .text.blk_find_max_devnum
                0x000000000041aacc       0x78 drivers/built-in.o
                0x000000000041aacc                blk_find_max_devnum
 .text.blk_create_device
                0x000000000041ab44       0xb0 drivers/built-in.o
                0x000000000041ab44                blk_create_device
 .text.blk_create_devicef
                0x000000000041abf4       0xa0 drivers/built-in.o
                0x000000000041abf4                blk_create_devicef
 .text.fpga_no_sup
                0x000000000041ac94       0x40 drivers/built-in.o
 .text.fpga_get_desc
                0x000000000041acd4       0x34 drivers/built-in.o
                0x000000000041acd4                fpga_get_desc
 .text.fpga_dev_info
                0x000000000041ad08       0x9c drivers/built-in.o
 .text.fpga_validate
                0x000000000041ada4       0x58 drivers/built-in.o
                0x000000000041ada4                fpga_validate
 .text.fpga_init
                0x000000000041adfc       0x20 drivers/built-in.o
                0x000000000041adfc                fpga_init
 .text.fpga_count
                0x000000000041ae1c       0x10 drivers/built-in.o
                0x000000000041ae1c                fpga_count
 .text.fpga_add
                0x000000000041ae2c       0xac drivers/built-in.o
                0x000000000041ae2c                fpga_add
 .text.fpga_loadbitstream
                0x000000000041aed8      0x208 drivers/built-in.o
                0x000000000041aef0                fpga_loadbitstream
 .text.fpga_fsload
                0x000000000041b0e0       0x60 drivers/built-in.o
                0x000000000041b0e0                fpga_fsload
 .text.fpga_load
                0x000000000041b140       0x90 drivers/built-in.o
                0x000000000041b140                fpga_load
 .text.fpga_dump
                0x000000000041b1d0       0x88 drivers/built-in.o
                0x000000000041b1d0                fpga_dump
 .text.fpga_info
                0x000000000041b258       0x6c drivers/built-in.o
                0x000000000041b258                fpga_info
 .text.load_word
                0x000000000041b2c4       0x48 drivers/built-in.o
 .text.zynq_align_dma_buffer
                0x000000000041b30c       0xc4 drivers/built-in.o
 .text.zynq_dma_transfer.constprop.4
                0x000000000041b3d0       0xac drivers/built-in.o
 .text.zynq_validate_bitstream.isra.3
                0x000000000041b47c      0x284 drivers/built-in.o
 .text.zynq_loadfs
                0x000000000041b700      0x214 drivers/built-in.o
 .text.zynq_load
                0x000000000041b914       0xe4 drivers/built-in.o
 .text.xilinx_validate
                0x000000000041b9f8       0x78 drivers/built-in.o
 .text.xilinx_load
                0x000000000041ba70       0x88 drivers/built-in.o
                0x000000000041ba70                xilinx_load
 .text.xilinx_loadfs
                0x000000000041baf8       0x84 drivers/built-in.o
                0x000000000041baf8                xilinx_loadfs
 .text.xilinx_dump
                0x000000000041bb7c       0x7c drivers/built-in.o
                0x000000000041bb7c                xilinx_dump
 .text.xilinx_info
                0x000000000041bbf8      0x1e8 drivers/built-in.o
                0x000000000041bbf8                xilinx_info
 .text.gpio_to_device
                0x000000000041bde0       0x80 drivers/gpio/built-in.o
 .text.check_reserved
                0x000000000041be60       0x74 drivers/gpio/built-in.o
 .text.gpio_renumber
                0x000000000041bed4       0x84 drivers/gpio/built-in.o
 .text.gpio_pre_remove
                0x000000000041bf58       0x50 drivers/gpio/built-in.o
 .text.gpio_post_probe
                0x000000000041bfa8       0x38 drivers/gpio/built-in.o
 .text.dm_gpio_set_value
                0x000000000041bfe0       0x54 drivers/gpio/built-in.o
                0x000000000041bfe0                dm_gpio_set_value
 .text.gpio_set_value
                0x000000000041c034       0x2c drivers/gpio/built-in.o
                0x000000000041c034                gpio_set_value
 .text.check_gpio
                0x000000000041c060       0x40 drivers/gpio/built-in.o
 .text.zynq_gpio_get_function
                0x000000000041c0a0       0xb0 drivers/gpio/built-in.o
 .text.zynq_gpio_set_value
                0x000000000041c150       0xe0 drivers/gpio/built-in.o
 .text.zynq_gpio_get_value
                0x000000000041c230       0xa8 drivers/gpio/built-in.o
 .text.zynq_gpio_direction_input
                0x000000000041c2d8       0xd0 drivers/gpio/built-in.o
 .text.zynq_gpio_direction_output
                0x000000000041c3a8       0xf0 drivers/gpio/built-in.o
 .text.zynq_gpio_ofdata_to_platdata
                0x000000000041c498       0x24 drivers/gpio/built-in.o
 .text.zynq_gpio_probe
                0x000000000041c4bc       0x90 drivers/gpio/built-in.o
 .text.dm_mmc_set_ios
                0x000000000041c54c       0x20 drivers/mmc/built-in.o
                0x000000000041c54c                dm_mmc_set_ios
 .text.mmc_set_ios
                0x000000000041c56c        0x8 drivers/mmc/built-in.o
                0x000000000041c56c                mmc_set_ios
 .text.dm_mmc_get_wp
                0x000000000041c574       0x20 drivers/mmc/built-in.o
                0x000000000041c574                dm_mmc_get_wp
 .text.mmc_getwp
                0x000000000041c594        0x8 drivers/mmc/built-in.o
                0x000000000041c594                mmc_getwp
 .text.dm_mmc_get_cd
                0x000000000041c59c       0x20 drivers/mmc/built-in.o
                0x000000000041c59c                dm_mmc_get_cd
 .text.mmc_getcd
                0x000000000041c5bc        0x8 drivers/mmc/built-in.o
                0x000000000041c5bc                mmc_getcd
 .text.dm_mmc_set_voltage
                0x000000000041c5c4       0x20 drivers/mmc/built-in.o
                0x000000000041c5c4                dm_mmc_set_voltage
 .text.mmc_set_voltage
                0x000000000041c5e4        0x8 drivers/mmc/built-in.o
                0x000000000041c5e4                mmc_set_voltage
 .text.dm_mmc_set_uhs
                0x000000000041c5ec       0x20 drivers/mmc/built-in.o
                0x000000000041c5ec                dm_mmc_set_uhs
 .text.mmc_switch_uhs
                0x000000000041c60c        0x8 drivers/mmc/built-in.o
                0x000000000041c60c                mmc_switch_uhs
 .text.mmc_get_mmc_dev
                0x000000000041c614       0x24 drivers/mmc/built-in.o
                0x000000000041c614                mmc_get_mmc_dev
 .text.dm_mmc_send_cmd
                0x000000000041c638       0x44 drivers/mmc/built-in.o
                0x000000000041c638                dm_mmc_send_cmd
 .text.mmc_send_cmd
                0x000000000041c67c        0x8 drivers/mmc/built-in.o
                0x000000000041c67c                mmc_send_cmd
 .text.dm_mmc_execute_tuning
                0x000000000041c684       0x44 drivers/mmc/built-in.o
                0x000000000041c684                dm_mmc_execute_tuning
 .text.mmc_execute_tuning
                0x000000000041c6c8        0x8 drivers/mmc/built-in.o
                0x000000000041c6c8                mmc_execute_tuning
 .text.mmc_select_hwpart
                0x000000000041c6d0       0x58 drivers/mmc/built-in.o
 .text.find_mmc_device
                0x000000000041c728       0x4c drivers/mmc/built-in.o
                0x000000000041c728                find_mmc_device
 .text.get_mmc_num
                0x000000000041c774       0x18 drivers/mmc/built-in.o
                0x000000000041c774                get_mmc_num
 .text.mmc_get_blk_desc
                0x000000000041c78c       0x28 drivers/mmc/built-in.o
                0x000000000041c78c                mmc_get_blk_desc
 .text.mmc_do_preinit
                0x000000000041c7b4       0x68 drivers/mmc/built-in.o
                0x000000000041c7b4                mmc_do_preinit
 .text.print_mmc_devices
                0x000000000041c81c       0xe8 drivers/mmc/built-in.o
                0x000000000041c81c                print_mmc_devices
 .text.mmc_bind
                0x000000000041c904       0x88 drivers/mmc/built-in.o
                0x000000000041c904                mmc_bind
 .text.mmc_send_ext_csd
                0x000000000041c98c       0x4c drivers/mmc/built-in.o
 .text.mmc_send_op_cond_iter
                0x000000000041c9d8       0x78 drivers/mmc/built-in.o
 .text.mmc_go_idle
                0x000000000041ca50       0x4c drivers/mmc/built-in.o
 .text.mmc_set_capacity
                0x000000000041ca9c       0xb0 drivers/mmc/built-in.o
 .text.mmc_send_status
                0x000000000041cb4c       0xcc drivers/mmc/built-in.o
                0x000000000041cb4c                mmc_send_status
 .text.mmc_set_blocklen
                0x000000000041cc18       0x40 drivers/mmc/built-in.o
                0x000000000041cc18                mmc_set_blocklen
 .text.mmc_bread
                0x000000000041cc58      0x168 drivers/mmc/built-in.o
                0x000000000041cc58                mmc_bread
 .text.mmc_switch
                0x000000000041cdc0       0x68 drivers/mmc/built-in.o
                0x000000000041cdc0                mmc_switch
 .text.mmc_change_freq
                0x000000000041ce28      0x228 drivers/mmc/built-in.o
 .text.mmc_hwpart_config
                0x000000000041d050      0x434 drivers/mmc/built-in.o
                0x000000000041d050                mmc_hwpart_config
 .text.mmc_set_clock
                0x000000000041d484       0x24 drivers/mmc/built-in.o
                0x000000000041d484                mmc_set_clock
 .text.mmc_switch_part
                0x000000000041d4a8      0x16c drivers/mmc/built-in.o
                0x000000000041d4a8                mmc_switch_part
 .text.mmc_startup
                0x000000000041d614      0xe7c drivers/mmc/built-in.o
 .text.board_mmc_power_init
                0x000000000041e490        0x4 drivers/mmc/built-in.o
                0x000000000041e490                board_mmc_power_init
 .text.mmc_start_init
                0x000000000041e494      0x284 drivers/mmc/built-in.o
                0x000000000041e494                mmc_start_init
 .text.mmc_init
                0x000000000041e718      0x104 drivers/mmc/built-in.o
                0x000000000041e718                mmc_init
 .text.mmc_set_dsr
                0x000000000041e81c        0xc drivers/mmc/built-in.o
                0x000000000041e81c                mmc_set_dsr
 .text.mmc_initialize
                0x000000000041e828       0xd0 drivers/mmc/built-in.o
                0x000000000041e828                mmc_initialize
 .text.arasan_sdhci_ofdata_to_platdata
                0x000000000041e8f8       0xd4 drivers/mmc/built-in.o
 .text.arasan_sdhci_probe
                0x000000000041e9cc       0xa0 drivers/mmc/built-in.o
 .text.arasan_sdhci_bind
                0x000000000041ea6c       0x20 drivers/mmc/built-in.o
 .text.mmc_berase
                0x000000000041ea8c      0x1b8 drivers/mmc/built-in.o
                0x000000000041ea8c                mmc_berase
 .text.mmc_bwrite
                0x000000000041ec44      0x190 drivers/mmc/built-in.o
                0x000000000041ec44                mmc_bwrite
 .text.sdhci_set_uhs
                0x000000000041edd4       0x3c drivers/mmc/built-in.o
 .text.sdhci_set_clock
                0x000000000041ee10      0x1fc drivers/mmc/built-in.o
 .text.sdhci_set_ios
                0x000000000041f00c       0xe0 drivers/mmc/built-in.o
 .text.sdhci_set_voltage
                0x000000000041f0ec      0x100 drivers/mmc/built-in.o
 .text.sdhci_reset.isra.2
                0x000000000041f1ec       0x68 drivers/mmc/built-in.o
 .text.sdhci_send_command
                0x000000000041f254      0x4e4 drivers/mmc/built-in.o
 .text.sdhci_execute_tuning
                0x000000000041f738      0x17c drivers/mmc/built-in.o
 .text.sdhci_probe
                0x000000000041f8b4      0x1c4 drivers/mmc/built-in.o
                0x000000000041f8b4                sdhci_probe
 .text.sdhci_setup_cfg
                0x000000000041fa78      0x20c drivers/mmc/built-in.o
                0x000000000041fa78                sdhci_setup_cfg
 .text.sdhci_bind
                0x000000000041fc84        0x4 drivers/mmc/built-in.o
                0x000000000041fc84                sdhci_bind
 .text.mtd_arg_off
                0x000000000041fc88       0x68 drivers/mtd/built-in.o
                0x000000000041fc88                mtd_arg_off
 .text.mtd_arg_off_size
                0x000000000041fcf0      0x118 drivers/mtd/built-in.o
                0x000000000041fcf0                mtd_arg_off_size
 .text.spi_flash_post_bind
                0x000000000041fe08        0x8 drivers/mtd/spi/built-in.o
 .text.spi_flash_read_dm
                0x000000000041fe10       0x1c drivers/mtd/spi/built-in.o
                0x000000000041fe10                spi_flash_read_dm
 .text.spi_flash_write_dm
                0x000000000041fe2c       0x1c drivers/mtd/spi/built-in.o
                0x000000000041fe2c                spi_flash_write_dm
 .text.spi_flash_erase_dm
                0x000000000041fe48       0x10 drivers/mtd/spi/built-in.o
                0x000000000041fe48                spi_flash_erase_dm
 .text.spi_flash_free
                0x000000000041fe58        0xc drivers/mtd/spi/built-in.o
                0x000000000041fe58                spi_flash_free
 .text.spi_flash_probe_bus_cs
                0x000000000041fe64       0x88 drivers/mtd/spi/built-in.o
                0x000000000041fe64                spi_flash_probe_bus_cs
 .text.spi_flash_probe
                0x000000000041feec       0x2c drivers/mtd/spi/built-in.o
                0x000000000041feec                spi_flash_probe
 .text.spi_flash_std_erase
                0x000000000041ff18       0x20 drivers/mtd/spi/built-in.o
 .text.spi_flash_std_write
                0x000000000041ff38       0x28 drivers/mtd/spi/built-in.o
 .text.spi_flash_std_read
                0x000000000041ff60       0x28 drivers/mtd/spi/built-in.o
 .text.spi_flash_std_probe
                0x000000000041ff88       0x70 drivers/mtd/spi/built-in.o
 .text.spi_flash_dual
                0x000000000041fff8       0x78 drivers/mtd/spi/built-in.o
 .text.stm_is_locked_sr
                0x0000000000420070       0x80 drivers/mtd/spi/built-in.o
 .text.spi_flash_read_common
                0x00000000004200f0       0x5c drivers/mtd/spi/built-in.o
                0x00000000004200f0                spi_flash_read_common
 .text.read_sr  0x000000000042014c       0x30 drivers/mtd/spi/built-in.o
 .text.stm_is_locked
                0x000000000042017c       0xfc drivers/mtd/spi/built-in.o
                0x000000000042017c                stm_is_locked
 .text.read_fsr
                0x0000000000420278       0x30 drivers/mtd/spi/built-in.o
 .text.spi_flash_write_common
                0x00000000004202a8      0x22c drivers/mtd/spi/built-in.o
                0x00000000004202a8                spi_flash_write_common
 .text.write_bar
                0x00000000004204d4       0x8c drivers/mtd/spi/built-in.o
 .text.spi_flash_cmd_erase_ops
                0x0000000000420560      0x16c drivers/mtd/spi/built-in.o
                0x0000000000420560                spi_flash_cmd_erase_ops
 .text.spi_flash_cmd_write_ops
                0x00000000004206cc      0x17c drivers/mtd/spi/built-in.o
                0x00000000004206cc                spi_flash_cmd_write_ops
 .text.write_sr
                0x0000000000420848       0x2c drivers/mtd/spi/built-in.o
 .text.stm_lock
                0x0000000000420874      0x174 drivers/mtd/spi/built-in.o
                0x0000000000420874                stm_lock
 .text.stm_unlock
                0x00000000004209e8      0x1b0 drivers/mtd/spi/built-in.o
                0x00000000004209e8                stm_unlock
 .text.set_quad_mode.isra.5
                0x0000000000420b98      0x1cc drivers/mtd/spi/built-in.o
 .text.spi_flash_copy_mmap
                0x0000000000420d64        0x4 drivers/mtd/spi/built-in.o
                0x0000000000420d64                spi_flash_copy_mmap
 .text.spi_flash_cmd_read_ops
                0x0000000000420d68      0x290 drivers/mtd/spi/built-in.o
                0x0000000000420d68                spi_flash_cmd_read_ops
 .text.spi_flash_cmd_4B_addr_switch
                0x0000000000420ff8      0x120 drivers/mtd/spi/built-in.o
                0x0000000000420ff8                spi_flash_cmd_4B_addr_switch
 .text.spi_flash_decode_fdt
                0x0000000000421118       0x4c drivers/mtd/spi/built-in.o
                0x0000000000421118                spi_flash_decode_fdt
 .text.spi_flash_scan
                0x0000000000421164      0x644 drivers/mtd/spi/built-in.o
                0x0000000000421164                spi_flash_scan
 .text.spi_flash_read_write
                0x00000000004217a8       0x98 drivers/mtd/spi/built-in.o
 .text.spi_flash_cmd_read
                0x0000000000421840       0x1c drivers/mtd/spi/built-in.o
                0x0000000000421840                spi_flash_cmd_read
 .text.spi_flash_cmd
                0x000000000042185c       0x28 drivers/mtd/spi/built-in.o
                0x000000000042185c                spi_flash_cmd
 .text.spi_flash_cmd_write
                0x0000000000421884       0x20 drivers/mtd/spi/built-in.o
                0x0000000000421884                spi_flash_cmd_write
 .text.nc_wait_arp_handler
                0x00000000004218a4       0x14 drivers/net/built-in.o
 .text.nc_handler
                0x00000000004218b8       0x24 drivers/net/built-in.o
 .text.nc_timeout_handler
                0x00000000004218dc       0x14 drivers/net/built-in.o
 .text.is_broadcast
                0x00000000004218f0       0xa8 drivers/net/built-in.o
 .text.nc_stdio_getc
                0x0000000000421998       0x8c drivers/net/built-in.o
 .text.nc_send_packet
                0x0000000000421a24      0x154 drivers/net/built-in.o
 .text.nc_stdio_putc
                0x0000000000421b78       0x38 drivers/net/built-in.o
 .text.refresh_settings_from_env
                0x0000000000421bb0      0x128 drivers/net/built-in.o
 .text.nc_stdio_start
                0x0000000000421cd8       0x38 drivers/net/built-in.o
 .text.nc_stdio_tstc
                0x0000000000421d10       0x7c drivers/net/built-in.o
 .text.nc_stdio_puts
                0x0000000000421d8c       0x64 drivers/net/built-in.o
 .text.nc_start
                0x0000000000421df0       0xdc drivers/net/built-in.o
                0x0000000000421df0                nc_start
 .text.nc_input_packet
                0x0000000000421ecc       0xec drivers/net/built-in.o
                0x0000000000421ecc                nc_input_packet
 .text.drv_nc_init
                0x0000000000421fb8       0x84 drivers/net/built-in.o
                0x0000000000421fb8                drv_nc_init
 .text.zynq_gem_setup_mac
                0x000000000042203c       0x74 drivers/net/built-in.o
 .text.zynq_gem_halt
                0x00000000004220b0       0x1c drivers/net/built-in.o
 .text.zynq_gem_free_pkt
                0x00000000004220cc       0x74 drivers/net/built-in.o
 .text.zynq_gem_send
                0x0000000000422140      0x118 drivers/net/built-in.o
 .text.zynq_gem_init
                0x0000000000422258      0x21c drivers/net/built-in.o
 .text.zynq_gem_ofdata_to_platdata
                0x0000000000422474      0x124 drivers/net/built-in.o
 .text.zynq_gem_remove
                0x0000000000422598       0x2c drivers/net/built-in.o
 .text.phy_setup_op.isra.0
                0x00000000004225c4       0xd4 drivers/net/built-in.o
 .text.zynq_gem_miiphy_write
                0x0000000000422698       0x30 drivers/net/built-in.o
 .text.zynq_gem_recv
                0x00000000004226c8       0x74 drivers/net/built-in.o
 .text.zynq_gem_probe
                0x000000000042273c      0x1bc drivers/net/built-in.o
 .text.zynq_gem_miiphy_read
                0x00000000004228f8       0x2c drivers/net/built-in.o
 .text.zynq_gem_read_rom_mac
                0x0000000000422924       0x24 drivers/net/built-in.o
 .text.genphy_shutdown
                0x0000000000422948        0x8 drivers/net/phy/built-in.o
                0x0000000000422948                genphy_shutdown
 .text.genphy_restart_aneg
                0x0000000000422950       0x5c drivers/net/phy/built-in.o
                0x0000000000422950                genphy_restart_aneg
 .text.genphy_config_aneg
                0x00000000004229ac      0x200 drivers/net/phy/built-in.o
                0x00000000004229ac                genphy_config_aneg
 .text.genphy_config
                0x0000000000422bac       0xc4 drivers/net/phy/built-in.o
                0x0000000000422bac                genphy_config
 .text.genphy_update_link
                0x0000000000422c70      0x148 drivers/net/phy/built-in.o
                0x0000000000422c70                genphy_update_link
 .text.genphy_parse_link
                0x0000000000422db8      0x198 drivers/net/phy/built-in.o
                0x0000000000422db8                genphy_parse_link
 .text.genphy_startup
                0x0000000000422f50       0x20 drivers/net/phy/built-in.o
                0x0000000000422f50                genphy_startup
 .text.phy_init
                0x0000000000422f70       0x18 drivers/net/phy/built-in.o
                0x0000000000422f70                phy_init
 .text.phy_register
                0x0000000000422f88       0x28 drivers/net/phy/built-in.o
                0x0000000000422f88                phy_register
 .text.get_phy_id
                0x0000000000422fb0       0x70 drivers/net/phy/built-in.o
                0x0000000000422fb0                get_phy_id
 .text.get_phy_device_by_mask
                0x0000000000423020      0x298 drivers/net/phy/built-in.o
 .text.phy_reset
                0x00000000004232b8       0xbc drivers/net/phy/built-in.o
                0x00000000004232b8                phy_reset
 .text.phy_find_by_mask
                0x0000000000423374       0x3c drivers/net/phy/built-in.o
                0x0000000000423374                phy_find_by_mask
 .text.phy_connect_dev
                0x00000000004233b0       0x50 drivers/net/phy/built-in.o
                0x00000000004233b0                phy_connect_dev
 .text.phy_connect
                0x0000000000423400       0x50 drivers/net/phy/built-in.o
                0x0000000000423400                phy_connect
 .text.phy_startup
                0x0000000000423450       0x1c drivers/net/phy/built-in.o
                0x0000000000423450                phy_startup
 .text.board_phy_config
                0x000000000042346c       0x1c drivers/net/phy/built-in.o
                0x000000000042346c                board_phy_config
 .text.phy_config
                0x0000000000423488        0x4 drivers/net/phy/built-in.o
                0x0000000000423488                phy_config
 .text.phy_get_interface_by_name
                0x000000000042348c       0x40 drivers/net/phy/built-in.o
                0x000000000042348c                phy_get_interface_by_name
 .text.m88e1xxx_parse_status
                0x00000000004234cc      0x110 drivers/net/phy/built-in.o
 .text.m88e1011s_startup
                0x00000000004235dc       0x20 drivers/net/phy/built-in.o
 .text.m88e1118_startup
                0x00000000004235fc       0x50 drivers/net/phy/built-in.o
 .text.m88e1011s_config
                0x000000000042364c       0xf8 drivers/net/phy/built-in.o
 .text.m88e1118_config
                0x0000000000423744       0xb8 drivers/net/phy/built-in.o
 .text.m88e1121_config
                0x00000000004237fc       0xcc drivers/net/phy/built-in.o
 .text.m88e1145_config
                0x00000000004238c8      0x10c drivers/net/phy/built-in.o
 .text.m88e1149_config
                0x00000000004239d4       0xc4 drivers/net/phy/built-in.o
 .text.m88e1310_config
                0x0000000000423a98      0x15c drivers/net/phy/built-in.o
 .text.m88e1111s_config
                0x0000000000423bf4      0x224 drivers/net/phy/built-in.o
 .text.m88e1145_startup
                0x0000000000423e18       0x4c drivers/net/phy/built-in.o
 .text.m88e1518_phy_writebits
                0x0000000000423e64       0x80 drivers/net/phy/built-in.o
                0x0000000000423e64                m88e1518_phy_writebits
 .text.m88e1518_config
                0x0000000000423ee4      0x1dc drivers/net/phy/built-in.o
 .text.m88e1510_config
                0x00000000004240c0       0xa4 drivers/net/phy/built-in.o
 .text.phy_marvell_init
                0x0000000000424164       0x84 drivers/net/phy/built-in.o
                0x0000000000424164                phy_marvell_init
 .text.phy_write.constprop.0
                0x00000000004241e8       0x2c drivers/net/phy/built-in.o
 .text.dp838xx_config
                0x0000000000424214       0x24 drivers/net/phy/built-in.o
 .text.phy_read.constprop.1
                0x0000000000424238       0x28 drivers/net/phy/built-in.o
 .text.dp83630_config
                0x0000000000424260       0x60 drivers/net/phy/built-in.o
 .text.dp83848_startup
                0x00000000004242c0       0x4c drivers/net/phy/built-in.o
 .text.dp83865_startup
                0x000000000042430c       0x5c drivers/net/phy/built-in.o
 .text.phy_natsemi_init
                0x0000000000424368       0x30 drivers/net/phy/built-in.o
                0x0000000000424368                phy_natsemi_init
 .text.xilinxphy_config
                0x0000000000424398       0x84 drivers/net/phy/built-in.o
 .text.xilinxphy_startup
                0x000000000042441c       0xc4 drivers/net/phy/built-in.o
 .text.phy_xilinx_init
                0x00000000004244e0       0x18 drivers/net/phy/built-in.o
                0x00000000004244e0                phy_xilinx_init
 .text._serial_putc
                0x00000000004244f8       0x40 drivers/serial/built-in.o
 .text._serial_getc
                0x0000000000424538       0x2c drivers/serial/built-in.o
 .text._serial_tstc
                0x0000000000424564       0x24 drivers/serial/built-in.o
 .text.serial_stub_putc
                0x0000000000424588        0x8 drivers/serial/built-in.o
 .text.serial_stub_getc
                0x0000000000424590        0x8 drivers/serial/built-in.o
                0x0000000000424590                serial_stub_getc
 .text.serial_stub_tstc
                0x0000000000424598        0x8 drivers/serial/built-in.o
                0x0000000000424598                serial_stub_tstc
 .text.serial_pre_remove
                0x00000000004245a0        0x8 drivers/serial/built-in.o
 .text.serial_post_probe
                0x00000000004245a8       0xc0 drivers/serial/built-in.o
 .text.serial_stub_puts
                0x0000000000424668       0x28 drivers/serial/built-in.o
                0x0000000000424668                serial_stub_puts
 .text.serial_init
                0x0000000000424690      0x160 drivers/serial/built-in.o
                0x0000000000424690                serial_init
 .text.serial_initialize
                0x00000000004247f0        0x4 drivers/serial/built-in.o
                0x00000000004247f0                serial_initialize
 .text.serial_putc
                0x00000000004247f4       0x18 drivers/serial/built-in.o
                0x00000000004247f4                serial_putc
 .text.serial_puts
                0x000000000042480c       0x34 drivers/serial/built-in.o
                0x000000000042480c                serial_puts
 .text.serial_getc
                0x0000000000424840       0x14 drivers/serial/built-in.o
                0x0000000000424840                serial_getc
 .text.serial_tstc
                0x0000000000424854       0x14 drivers/serial/built-in.o
                0x0000000000424854                serial_tstc
 .text.serial_setbrg
                0x0000000000424868       0x30 drivers/serial/built-in.o
                0x0000000000424868                serial_setbrg
 .text.on_baudrate
                0x0000000000424898       0xe0 drivers/serial/built-in.o
 .text.serial_stdio_init
                0x0000000000424978        0x4 drivers/serial/built-in.o
                0x0000000000424978                serial_stdio_init
 .text.zynq_serial_pending
                0x000000000042497c       0x2c drivers/serial/built-in.o
 .text.zynq_serial_putc
                0x00000000004249a8       0x38 drivers/serial/built-in.o
 .text.zynq_serial_getc
                0x00000000004249e0       0x30 drivers/serial/built-in.o
 .text.zynq_serial_probe
                0x0000000000424a10       0x2c drivers/serial/built-in.o
 .text.zynq_serial_setbrg
                0x0000000000424a3c       0xc8 drivers/serial/built-in.o
                0x0000000000424a3c                zynq_serial_setbrg
 .text.zynq_serial_ofdata_to_platdata
                0x0000000000424b04       0x24 drivers/serial/built-in.o
 .text.spi_set_speed_mode
                0x0000000000424b28       0x84 drivers/spi/built-in.o
 .text.spi_child_pre_probe
                0x0000000000424bac       0x3c drivers/spi/built-in.o
 .text.spi_post_probe
                0x0000000000424be8       0x34 drivers/spi/built-in.o
 .text.dm_spi_claim_bus
                0x0000000000424c1c       0xac drivers/spi/built-in.o
                0x0000000000424c1c                dm_spi_claim_bus
 .text.dm_spi_release_bus
                0x0000000000424cc8       0x1c drivers/spi/built-in.o
                0x0000000000424cc8                dm_spi_release_bus
 .text.dm_spi_xfer
                0x0000000000424ce4       0x40 drivers/spi/built-in.o
                0x0000000000424ce4                dm_spi_xfer
 .text.spi_claim_bus
                0x0000000000424d24        0x8 drivers/spi/built-in.o
                0x0000000000424d24                spi_claim_bus
 .text.spi_release_bus
                0x0000000000424d2c        0x8 drivers/spi/built-in.o
                0x0000000000424d2c                spi_release_bus
 .text.spi_xfer
                0x0000000000424d34        0x8 drivers/spi/built-in.o
                0x0000000000424d34                spi_xfer
 .text.spi_find_chip_select
                0x0000000000424d3c       0x54 drivers/spi/built-in.o
                0x0000000000424d3c                spi_find_chip_select
 .text.spi_find_bus_and_cs
                0x0000000000424d90       0x58 drivers/spi/built-in.o
                0x0000000000424d90                spi_find_bus_and_cs
 .text.spi_get_bus_and_cs
                0x0000000000424de8      0x15c drivers/spi/built-in.o
                0x0000000000424de8                spi_get_bus_and_cs
 .text.spi_slave_ofdata_to_platdata
                0x0000000000424f44      0x174 drivers/spi/built-in.o
                0x0000000000424f44                spi_slave_ofdata_to_platdata
 .text.spi_child_post_bind
                0x00000000004250b8       0x30 drivers/spi/built-in.o
 .text.zynq_qspi_set_mode
                0x00000000004250e8       0x44 drivers/spi/built-in.o
 .text.zynq_qspi_set_speed
                0x000000000042512c       0xa0 drivers/spi/built-in.o
 .text.zynq_qspi_release_bus
                0x00000000004251cc       0x24 drivers/spi/built-in.o
 .text.zynq_qspi_claim_bus
                0x00000000004251f0       0x24 drivers/spi/built-in.o
 .text.zynq_qspi_fill_tx_fifo
                0x0000000000425214      0x190 drivers/spi/built-in.o
 .text.zynq_qspi_child_pre_probe
                0x00000000004253a4       0x44 drivers/spi/built-in.o
 .text.zynq_qspi_probe
                0x00000000004253e8      0x134 drivers/spi/built-in.o
 .text.zynq_qspi_ofdata_to_platdata
                0x000000000042551c      0x140 drivers/spi/built-in.o
 .text.zynq_qspi_xfer
                0x000000000042565c      0x358 drivers/spi/built-in.o
 .text.fs_probe_unsupported
                0x00000000004259b4       0x18 fs/built-in.o
 .text.fs_exists_unsupported
                0x00000000004259cc        0x8 fs/built-in.o
 .text.fs_size_unsupported
                0x00000000004259d4        0x8 fs/built-in.o
 .text.fs_write_unsupported
                0x00000000004259dc        0x8 fs/built-in.o
 .text.fs_close_unsupported
                0x00000000004259e4        0x4 fs/built-in.o
 .text.fs_uuid_unsupported
                0x00000000004259e8        0x8 fs/built-in.o
 .text.fs_get_info
                0x00000000004259f0       0x20 fs/built-in.o
 .text.fs_close
                0x0000000000425a10       0x28 fs/built-in.o
 .text.fs_read_unsupported
                0x0000000000425a38        0x8 fs/built-in.o
 .text.fs_ls_unsupported
                0x0000000000425a40        0x8 fs/built-in.o
 .text.fs_set_blk_dev
                0x0000000000425a48       0xb4 fs/built-in.o
                0x0000000000425a48                fs_set_blk_dev
 .text.fs_ls    0x0000000000425afc       0x3c fs/built-in.o
                0x0000000000425afc                fs_ls
 .text.fs_exists
                0x0000000000425b38       0x34 fs/built-in.o
                0x0000000000425b38                fs_exists
 .text.fs_size  0x0000000000425b6c       0x3c fs/built-in.o
                0x0000000000425b6c                fs_size
 .text.fs_read  0x0000000000425ba8       0xa0 fs/built-in.o
                0x0000000000425ba8                fs_read
 .text.fs_write
                0x0000000000425c48       0x90 fs/built-in.o
                0x0000000000425c48                fs_write
 .text.do_size  0x0000000000425cd8       0x60 fs/built-in.o
                0x0000000000425cd8                do_size
 .text.do_load  0x0000000000425d38      0x240 fs/built-in.o
                0x0000000000425d38                do_load
 .text.do_ls    0x0000000000425f78       0x68 fs/built-in.o
                0x0000000000425f78                do_ls
 .text.file_exists
                0x0000000000425fe0       0x2c fs/built-in.o
                0x0000000000425fe0                file_exists
 .text.do_save  0x000000000042600c      0x178 fs/built-in.o
                0x000000000042600c                do_save
 .text.do_fs_type
                0x0000000000426184       0x70 fs/built-in.o
                0x0000000000426184                do_fs_type
 .text.downcase
                0x00000000004261f4       0x30 fs/built-in.o
 .text.dirdelim
                0x0000000000426224       0x38 fs/built-in.o
 .text.mkcksum  0x000000000042625c       0x50 fs/built-in.o
 .text.disk_read
                0x00000000004262ac       0x6c fs/built-in.o
 .text.get_cluster
                0x0000000000426318      0x16c fs/built-in.o
 .text.get_name
                0x0000000000426484       0xac fs/built-in.o
 .text.read_bootsectandvi
                0x0000000000426530      0x11c fs/built-in.o
 .text.disk_write
                0x000000000042664c       0x8c fs/built-in.o
 .text.flush_dirty_fat_buffer
                0x00000000004266d8       0xa8 fs/built-in.o
 .text.get_fatent
                0x0000000000426780      0x18c fs/built-in.o
 .text.find_empty_cluster
                0x000000000042690c       0x2c fs/built-in.o
 .text.set_fatent_value
                0x0000000000426938      0x1d0 fs/built-in.o
 .text.set_cluster
                0x0000000000426b08      0x16c fs/built-in.o
 .text.set_name
                0x0000000000426c74      0x14c fs/built-in.o
 .text.check_overflow
                0x0000000000426dc0       0xa8 fs/built-in.o
 .text.slot2str
                0x0000000000426e68       0xbc fs/built-in.o
 .text.get_vfatname
                0x0000000000426f24      0x1b8 fs/built-in.o
 .text.flush_dir_table.constprop.8
                0x00000000004270dc       0xd4 fs/built-in.o
 .text.do_fat_write
                0x00000000004271b0      0xc1c fs/built-in.o
 .text.fat_set_blk_dev
                0x0000000000427dcc       0xcc fs/built-in.o
                0x0000000000427dcc                fat_set_blk_dev
 .text.do_fat_read_at
                0x0000000000427e98      0xca8 fs/built-in.o
                0x0000000000427e98                do_fat_read_at
 .text.do_fat_read
                0x0000000000428b40       0x3c fs/built-in.o
                0x0000000000428b40                do_fat_read
 .text.file_fat_detectfs
                0x0000000000428b7c      0x148 fs/built-in.o
                0x0000000000428b7c                file_fat_detectfs
 .text.file_fat_ls
                0x0000000000428cc4       0x2c fs/built-in.o
                0x0000000000428cc4                file_fat_ls
 .text.fat_exists
                0x0000000000428cf0       0x44 fs/built-in.o
                0x0000000000428cf0                fat_exists
 .text.fat_size
                0x0000000000428d34       0x38 fs/built-in.o
                0x0000000000428d34                fat_size
 .text.file_fat_read_at
                0x0000000000428d6c       0x60 fs/built-in.o
                0x0000000000428d6c                file_fat_read_at
 .text.fat_read_file
                0x0000000000428dcc       0x48 fs/built-in.o
                0x0000000000428dcc                fat_read_file
 .text.fat_close
                0x0000000000428e14        0x4 fs/built-in.o
                0x0000000000428e14                fat_close
 .text.file_fat_write
                0x0000000000428e18       0x5c fs/built-in.o
                0x0000000000428e18                file_fat_write
 .text.efi_return_handle
                0x0000000000428e74        0xc lib/built-in.o
                0x0000000000428e74                efi_return_handle
 .text.efi_load_pe
                0x0000000000428e80      0x2c0 lib/built-in.o
                0x0000000000428e80                efi_load_pe
 .text.efi_search.isra.0.part.1
                0x0000000000429140       0x48 lib/built-in.o
 .text.efi_save_gd
                0x0000000000429188       0x10 lib/built-in.o
                0x0000000000429188                efi_save_gd
 .text.efi_restore_gd
                0x0000000000429198       0x2c lib/built-in.o
                0x0000000000429198                efi_restore_gd
 .text.efi_set_mem
                0x00000000004291c4       0x20 lib/built-in.o
 .text.efi_copy_mem
                0x00000000004291e4       0x18 lib/built-in.o
 .text.efi_exit
                0x00000000004291fc       0x30 lib/built-in.o
 .text.efi_allocate_pages_ext
                0x000000000042922c       0x2c lib/built-in.o
                0x000000000042922c                efi_allocate_pages_ext
 .text.efi_free_pages_ext
                0x0000000000429258       0x28 lib/built-in.o
                0x0000000000429258                efi_free_pages_ext
 .text.efi_get_memory_map_ext
                0x0000000000429280       0x38 lib/built-in.o
                0x0000000000429280                efi_get_memory_map_ext
 .text.efi_calculate_crc32
                0x00000000004292b8       0x38 lib/built-in.o
 .text.efi_uninstall_multiple_protocol_interfaces
                0x00000000004292f0       0x28 lib/built-in.o
 .text.efi_install_multiple_protocol_interfaces
                0x0000000000429318       0x28 lib/built-in.o
 .text.efi_locate_protocol
                0x0000000000429340       0x44 lib/built-in.o
 .text.efi_locate_handle_buffer
                0x0000000000429384       0x1c lib/built-in.o
 .text.efi_protocols_per_handle
                0x00000000004293a0       0x1c lib/built-in.o
 .text.efi_open_protocol_information
                0x00000000004293bc       0x1c lib/built-in.o
 .text.efi_open_protocol
                0x00000000004293d8       0xc8 lib/built-in.o
 .text.efi_handle_protocol
                0x00000000004294a0       0x1c lib/built-in.o
 .text.efi_disconnect_controller
                0x00000000004294bc       0x1c lib/built-in.o
 .text.efi_connect_controller
                0x00000000004294d8       0x1c lib/built-in.o
 .text.efi_set_watchdog_timer
                0x00000000004294f4       0x1c lib/built-in.o
 .text.efi_stall
                0x0000000000429510       0x20 lib/built-in.o
 .text.efi_get_next_monotonic_count
                0x0000000000429530       0x38 lib/built-in.o
 .text.efi_exit_boot_services
                0x0000000000429568       0x3c lib/built-in.o
 .text.efi_unload_image
                0x00000000004295a4       0x64 lib/built-in.o
 .text.efi_start_image
                0x0000000000429608       0x74 lib/built-in.o
 .text.efi_load_image
                0x000000000042967c       0xc0 lib/built-in.o
 .text.efi_locate_device_path
                0x000000000042973c       0x1c lib/built-in.o
 .text.efi_locate_handle
                0x0000000000429758       0xdc lib/built-in.o
 .text.efi_reinstall_protocol_interface
                0x0000000000429834       0x1c lib/built-in.o
 .text.efi_install_protocol_interface
                0x0000000000429850       0x1c lib/built-in.o
 .text.efi_check_event
                0x000000000042986c       0x1c lib/built-in.o
 .text.efi_close_event
                0x0000000000429888       0x30 lib/built-in.o
 .text.efi_signal_event
                0x00000000004298b8       0x1c lib/built-in.o
 .text.efi_set_timer
                0x00000000004298d4       0xbc lib/built-in.o
 .text.efi_create_event
                0x0000000000429990       0x54 lib/built-in.o
 .text.efi_free_pool_ext
                0x00000000004299e4       0x1c lib/built-in.o
 .text.efi_allocate_pool_ext
                0x0000000000429a00       0x24 lib/built-in.o
 .text.efi_restore_tpl
                0x0000000000429a24       0x18 lib/built-in.o
 .text.efi_raise_tpl
                0x0000000000429a3c       0x1c lib/built-in.o
 .text.efi_close_protocol
                0x0000000000429a58       0x1c lib/built-in.o
 .text.efi_uninstall_protocol_interface
                0x0000000000429a74       0x1c lib/built-in.o
 .text.efi_register_protocol_notify
                0x0000000000429a90       0x1c lib/built-in.o
 .text.efi_exit_func
                0x0000000000429aac       0x10 lib/built-in.o
                0x0000000000429aac                efi_exit_func
 .text.efi_timer_check
                0x0000000000429abc       0x64 lib/built-in.o
                0x0000000000429abc                efi_timer_check
 .text.efi_wait_for_event
                0x0000000000429b20       0x40 lib/built-in.o
 .text.efi_install_configuration_table
                0x0000000000429b60       0xa4 lib/built-in.o
                0x0000000000429b60                efi_install_configuration_table
 .text.efi_install_configuration_table_ext
                0x0000000000429c04       0x24 lib/built-in.o
 .text.efi_get_time_boottime
                0x0000000000429c28        0x8 lib/built-in.o
 .text.efi_reset_system_boottime
                0x0000000000429c30       0x2c lib/built-in.o
 .text.efi_reset_system_init
                0x0000000000429c5c        0x4 lib/built-in.o
                0x0000000000429c5c                efi_reset_system_init
 .text.efi_get_time_init
                0x0000000000429c60        0x4 lib/built-in.o
                0x0000000000429c60                efi_get_time_init
 .text.efi_runtime_relocate
                0x0000000000429c64      0x130 lib/built-in.o
                0x0000000000429c64                efi_runtime_relocate
 .text.efi_set_virtual_address_map
                0x0000000000429d94      0x180 lib/built-in.o
 .text.efi_cin_lock_std_in
                0x0000000000429f14       0x14 lib/built-in.o
 .text.efi_cin_set_mode
                0x0000000000429f28       0x14 lib/built-in.o
 .text.efi_cin_get_mode
                0x0000000000429f3c       0x44 lib/built-in.o
 .text.efi_cout_set_attribute
                0x0000000000429f80       0x14 lib/built-in.o
 .text.efi_cout_test_string
                0x0000000000429f94       0x14 lib/built-in.o
 .text.efi_cout_reset
                0x0000000000429fa8       0x14 lib/built-in.o
 .text.efi_cin_reset
                0x0000000000429fbc       0x14 lib/built-in.o
 .text.efi_cout_enable_cursor
                0x0000000000429fd0       0x30 lib/built-in.o
 .text.efi_cout_set_cursor_position
                0x000000000042a000       0x40 lib/built-in.o
 .text.efi_cout_clear_screen
                0x000000000042a040       0x20 lib/built-in.o
 .text.efi_cout_output_string
                0x000000000042a060       0xf4 lib/built-in.o
 .text.efi_cout_set_mode
                0x000000000042a154       0x38 lib/built-in.o
 .text.efi_cin_read_key_stroke
                0x000000000042a18c      0x120 lib/built-in.o
 .text.efi_cout_query_mode
                0x000000000042a2ac      0x214 lib/built-in.o
 .text.efi_mem_cmp
                0x000000000042a4c0       0x30 lib/built-in.o
 .text.efi_find_free_memory
                0x000000000042a4f0       0xd0 lib/built-in.o
 .text.efi_add_memory_map
                0x000000000042a5c0      0x338 lib/built-in.o
                0x000000000042a5c0                efi_add_memory_map
 .text.efi_allocate_pages
                0x000000000042a8f8       0xb0 lib/built-in.o
                0x000000000042a8f8                efi_allocate_pages
 .text.efi_alloc
                0x000000000042a9a8       0x54 lib/built-in.o
                0x000000000042a9a8                efi_alloc
 .text.efi_free_pages
                0x000000000042a9fc       0x38 lib/built-in.o
                0x000000000042a9fc                efi_free_pages
 .text.efi_allocate_pool
                0x000000000042aa34       0x58 lib/built-in.o
                0x000000000042aa34                efi_allocate_pool
 .text.efi_free_pool
                0x000000000042aa8c       0x10 lib/built-in.o
                0x000000000042aa8c                efi_free_pool
 .text.efi_get_memory_map
                0x000000000042aa9c       0xb8 lib/built-in.o
                0x000000000042aa9c                efi_get_memory_map
 .text.efi_memory_init
                0x000000000042ab54       0xd4 lib/built-in.o
                0x000000000042ab54                efi_memory_init
 .text.efi_disk_open_block
                0x000000000042ac28       0x10 lib/built-in.o
 .text.efi_disk_open_dp
                0x000000000042ac38       0x10 lib/built-in.o
 .text.efi_disk_flush_blocks
                0x000000000042ac48       0x14 lib/built-in.o
 .text.efi_disk_reset
                0x000000000042ac5c       0x14 lib/built-in.o
 .text.efi_disk_read_blocks
                0x000000000042ac70       0x88 lib/built-in.o
 .text.efi_disk_write_blocks
                0x000000000042acf8       0x88 lib/built-in.o
 .text.efi_disk_register
                0x000000000042ad80      0x1cc lib/built-in.o
                0x000000000042ad80                efi_disk_register
 .text.efi_net_push
                0x000000000042af4c       0x14 lib/built-in.o
 .text.efi_net_open_dp
                0x000000000042af60       0x10 lib/built-in.o
 .text.efi_net_open_pxe
                0x000000000042af70       0x10 lib/built-in.o
 .text.efi_net_get_status
                0x000000000042af80       0x40 lib/built-in.o
 .text.efi_net_nvdata
                0x000000000042afc0       0x14 lib/built-in.o
 .text.efi_net_mcastiptomac
                0x000000000042afd4       0x14 lib/built-in.o
 .text.efi_net_station_address
                0x000000000042afe8       0x14 lib/built-in.o
 .text.efi_net_receive_filters
                0x000000000042affc       0x14 lib/built-in.o
 .text.efi_net_shutdown
                0x000000000042b010       0x14 lib/built-in.o
 .text.efi_net_stop
                0x000000000042b024        0x4 lib/built-in.o
 .text.efi_net_start
                0x000000000042b028        0x4 lib/built-in.o
 .text.efi_net_reset
                0x000000000042b02c       0x14 lib/built-in.o
 .text.efi_net_initialize
                0x000000000042b040       0x18 lib/built-in.o
 .text.efi_net_receive
                0x000000000042b058       0x94 lib/built-in.o
 .text.efi_net_transmit
                0x000000000042b0ec       0x44 lib/built-in.o
 .text.efi_net_statistics
                0x000000000042b130       0x14 lib/built-in.o
 .text.efi_net_register
                0x000000000042b144      0x238 lib/built-in.o
                0x000000000042b144                efi_net_register
 .text.efi_smbios_register
                0x000000000042b37c       0x4c lib/built-in.o
                0x000000000042b37c                efi_smbios_register
 .text.zcalloc  0x000000000042b3c8        0x8 lib/built-in.o
                0x000000000042b3c8                zcalloc
 .text.zcfree   0x000000000042b3d0        0x8 lib/built-in.o
                0x000000000042b3d0                zcfree
 .text.inflate_fast
                0x000000000042b3d8      0x598 lib/built-in.o
                0x000000000042b3d8                inflate_fast
 .text.inflate_table
                0x000000000042b970      0x528 lib/built-in.o
                0x000000000042b970                inflate_table
 .text.inflateReset
                0x000000000042be98       0x78 lib/built-in.o
                0x000000000042be98                inflateReset
 .text.inflateInit2_
                0x000000000042bf10      0x100 lib/built-in.o
                0x000000000042bf10                inflateInit2_
 .text.inflateEnd
                0x000000000042c010       0x64 lib/built-in.o
                0x000000000042c010                inflateEnd
 .text.adler32  0x000000000042c074      0x33c lib/built-in.o
                0x000000000042c074                adler32
 .text.inflate  0x000000000042c3b0     0x14c0 lib/built-in.o
                0x000000000042c3b0                inflate
 .text.fdt_check_header
                0x000000000042d870       0x74 lib/built-in.o
                0x000000000042d870                fdt_check_header
 .text.fdt_offset_ptr
                0x000000000042d8e4       0x6c lib/built-in.o
                0x000000000042d8e4                fdt_offset_ptr
 .text.fdt_next_tag
                0x000000000042d950       0xfc lib/built-in.o
                0x000000000042d950                fdt_next_tag
 .text._fdt_check_node_offset
                0x000000000042da4c       0x3c lib/built-in.o
                0x000000000042da4c                _fdt_check_node_offset
 .text._fdt_check_prop_offset
                0x000000000042da88       0x3c lib/built-in.o
                0x000000000042da88                _fdt_check_prop_offset
 .text.fdt_next_node
                0x000000000042dac4       0xbc lib/built-in.o
                0x000000000042dac4                fdt_next_node
 .text.fdt_first_subnode
                0x000000000042db80       0x34 lib/built-in.o
                0x000000000042db80                fdt_first_subnode
 .text.fdt_next_subnode
                0x000000000042dbb4       0x50 lib/built-in.o
                0x000000000042dbb4                fdt_next_subnode
 .text._fdt_find_string
                0x000000000042dc04       0x58 lib/built-in.o
                0x000000000042dc04                _fdt_find_string
 .text.fdt_move
                0x000000000042dc5c       0x44 lib/built-in.o
                0x000000000042dc5c                fdt_move
 .text.fdt_path_next_separator
                0x000000000042dca0       0x50 lib/built-in.o
 .text._nextprop
                0x000000000042dcf0       0x54 lib/built-in.o
 .text.fdt_string
                0x000000000042dd44       0x14 lib/built-in.o
                0x000000000042dd44                fdt_string
 .text.fdt_get_mem_rsv
                0x000000000042dd58       0x60 lib/built-in.o
                0x000000000042dd58                fdt_get_mem_rsv
 .text.fdt_num_mem_rsv
                0x000000000042ddb8       0x40 lib/built-in.o
                0x000000000042ddb8                fdt_num_mem_rsv
 .text.fdt_subnode_offset_namelen
                0x000000000042ddf8       0xd0 lib/built-in.o
                0x000000000042ddf8                fdt_subnode_offset_namelen
 .text.fdt_subnode_offset
                0x000000000042dec8       0x30 lib/built-in.o
                0x000000000042dec8                fdt_subnode_offset
 .text.fdt_get_name
                0x000000000042def8       0x70 lib/built-in.o
                0x000000000042def8                fdt_get_name
 .text.fdt_first_property_offset
                0x000000000042df68       0x20 lib/built-in.o
                0x000000000042df68                fdt_first_property_offset
 .text.fdt_next_property_offset
                0x000000000042df88       0x20 lib/built-in.o
                0x000000000042df88                fdt_next_property_offset
 .text.fdt_get_property_by_offset
                0x000000000042dfa8       0x50 lib/built-in.o
                0x000000000042dfa8                fdt_get_property_by_offset
 .text.fdt_get_property_namelen
                0x000000000042dff8       0xb8 lib/built-in.o
                0x000000000042dff8                fdt_get_property_namelen
 .text.fdt_get_property
                0x000000000042e0b0       0x3c lib/built-in.o
                0x000000000042e0b0                fdt_get_property
 .text.fdt_getprop_namelen
                0x000000000042e0ec       0x20 lib/built-in.o
                0x000000000042e0ec                fdt_getprop_namelen
 .text.fdt_getprop_by_offset
                0x000000000042e10c       0x48 lib/built-in.o
                0x000000000042e10c                fdt_getprop_by_offset
 .text.fdt_getprop
                0x000000000042e154       0x3c lib/built-in.o
                0x000000000042e154                fdt_getprop
 .text.fdt_get_phandle
                0x000000000042e190       0x70 lib/built-in.o
                0x000000000042e190                fdt_get_phandle
 .text.fdt_get_alias_namelen
                0x000000000042e200       0x44 lib/built-in.o
                0x000000000042e200                fdt_get_alias_namelen
 .text.fdt_path_offset_namelen
                0x000000000042e244       0xe4 lib/built-in.o
                0x000000000042e244                fdt_path_offset_namelen
 .text.fdt_path_offset
                0x000000000042e328       0x28 lib/built-in.o
                0x000000000042e328                fdt_path_offset
 .text.fdt_supernode_atdepth_offset
                0x000000000042e350       0xa4 lib/built-in.o
                0x000000000042e350                fdt_supernode_atdepth_offset
 .text.fdt_node_depth
                0x000000000042e3f4       0x28 lib/built-in.o
                0x000000000042e3f4                fdt_node_depth
 .text.fdt_parent_offset
                0x000000000042e41c       0x30 lib/built-in.o
                0x000000000042e41c                fdt_parent_offset
 .text.fdt_node_offset_by_phandle
                0x000000000042e44c       0x6c lib/built-in.o
                0x000000000042e44c                fdt_node_offset_by_phandle
 .text.fdt_stringlist_contains
                0x000000000042e4b8       0x7c lib/built-in.o
                0x000000000042e4b8                fdt_stringlist_contains
 .text.fdt_stringlist_get
                0x000000000042e534       0xac lib/built-in.o
                0x000000000042e534                fdt_stringlist_get
 .text.fdt_node_check_compatible
                0x000000000042e5e0       0x40 lib/built-in.o
                0x000000000042e5e0                fdt_node_check_compatible
 .text.fdt_node_offset_by_compatible
                0x000000000042e620       0x74 lib/built-in.o
                0x000000000042e620                fdt_node_offset_by_compatible
 .text._fdt_blocks_misordered
                0x000000000042e694       0x64 lib/built-in.o
 .text._fdt_splice
                0x000000000042e6f8       0x90 lib/built-in.o
 .text._fdt_splice_mem_rsv
                0x000000000042e788       0x58 lib/built-in.o
 .text._fdt_splice_struct
                0x000000000042e7e0       0x4c lib/built-in.o
 .text._fdt_packblocks
                0x000000000042e82c       0x8c lib/built-in.o
 .text._fdt_find_add_string
                0x000000000042e8b8       0xa4 lib/built-in.o
 .text._fdt_add_property
                0x000000000042e95c       0x90 lib/built-in.o
 .text._fdt_rw_check_header
                0x000000000042e9ec       0x60 lib/built-in.o
 .text.fdt_add_mem_rsv
                0x000000000042ea4c       0x88 lib/built-in.o
                0x000000000042ea4c                fdt_add_mem_rsv
 .text.fdt_del_mem_rsv
                0x000000000042ead4       0x58 lib/built-in.o
                0x000000000042ead4                fdt_del_mem_rsv
 .text.fdt_setprop
                0x000000000042eb2c       0xe8 lib/built-in.o
                0x000000000042eb2c                fdt_setprop
 .text.fdt_delprop
                0x000000000042ec14       0x68 lib/built-in.o
                0x000000000042ec14                fdt_delprop
 .text.fdt_add_subnode_namelen
                0x000000000042ec7c       0xf0 lib/built-in.o
                0x000000000042ec7c                fdt_add_subnode_namelen
 .text.fdt_add_subnode
                0x000000000042ed6c       0x30 lib/built-in.o
                0x000000000042ed6c                fdt_add_subnode
 .text.fdt_del_node
                0x000000000042ed9c       0x50 lib/built-in.o
                0x000000000042ed9c                fdt_del_node
 .text.fdt_open_into
                0x000000000042edec      0x194 lib/built-in.o
                0x000000000042edec                fdt_open_into
 .text.fdt_strerror
                0x000000000042ef80       0x58 lib/built-in.o
                0x000000000042ef80                fdt_strerror
 .text._fdt_node_end_offset
                0x000000000042efd8       0x44 lib/built-in.o
                0x000000000042efd8                _fdt_node_end_offset
 .text.fdt_address_cells
                0x000000000042f01c       0x4c lib/built-in.o
                0x000000000042f01c                fdt_address_cells
 .text.fdt_size_cells
                0x000000000042f068       0x48 lib/built-in.o
                0x000000000042f068                fdt_size_cells
 .text.crc16_ccitt
                0x000000000042f0b0       0x3c lib/built-in.o
                0x000000000042f0b0                crc16_ccitt
 .text.fdtdec_get_int
                0x000000000042f0ec       0x34 lib/built-in.o
                0x000000000042f0ec                fdtdec_get_int
 .text.fdtdec_get_uint
                0x000000000042f120       0x34 lib/built-in.o
                0x000000000042f120                fdtdec_get_uint
 .text.gzalloc  0x000000000042f154       0x10 lib/built-in.o
                0x000000000042f154                gzalloc
 .text.gzfree   0x000000000042f164        0x8 lib/built-in.o
                0x000000000042f164                gzfree
 .text.zunzip   0x000000000042f16c      0x11c lib/built-in.o
                0x000000000042f16c                zunzip
 .text.gunzip   0x000000000042f288       0xb4 lib/built-in.o
                0x000000000042f288                gunzip
 .text.smbios_write_type127
                0x000000000042f33c       0x54 lib/built-in.o
 .text.smbios_write_type32
                0x000000000042f390       0x54 lib/built-in.o
 .text.smbios_string_table_len
                0x000000000042f3e4       0x38 lib/built-in.o
 .text.smbios_add_string
                0x000000000042f41c       0x68 lib/built-in.o
 .text.smbios_write_type3
                0x000000000042f484       0x8c lib/built-in.o
 .text.smbios_write_type2
                0x000000000042f510       0x9c lib/built-in.o
 .text.smbios_write_type0
                0x000000000042f5ac       0xf4 lib/built-in.o
 .text.smbios_write_type1
                0x000000000042f6a0       0xc4 lib/built-in.o
 .text.smbios_write_type4
                0x000000000042f764       0xd8 lib/built-in.o
 .text.write_smbios_table
                0x000000000042f83c      0x11c lib/built-in.o
                0x000000000042f83c                write_smbios_table
 .text.initcall_run_list
                0x000000000042f958       0x60 lib/built-in.o
                0x000000000042f958                initcall_run_list
 .text.lmb_add_region
                0x000000000042f9b8      0x18c lib/built-in.o
 .text.lmb_init
                0x000000000042fb44       0x28 lib/built-in.o
                0x000000000042fb44                lmb_init
 .text.lmb_add  0x000000000042fb6c        0x4 lib/built-in.o
                0x000000000042fb6c                lmb_add
 .text.lmb_free
                0x000000000042fb70       0xe8 lib/built-in.o
                0x000000000042fb70                lmb_free
 .text.lmb_reserve
                0x000000000042fc58        0x8 lib/built-in.o
                0x000000000042fc58                lmb_reserve
 .text.__lmb_alloc_base
                0x000000000042fc60      0x120 lib/built-in.o
                0x000000000042fc60                __lmb_alloc_base
 .text.lmb_alloc_base
                0x000000000042fd80       0x34 lib/built-in.o
                0x000000000042fd80                lmb_alloc_base
 .text.lmb_alloc
                0x000000000042fdb4        0x8 lib/built-in.o
                0x000000000042fdb4                lmb_alloc
 .text.board_lmb_reserve
                0x000000000042fdbc        0x4 lib/built-in.o
                0x000000000042fdbc                board_lmb_reserve
 .text.MD5Transform
                0x000000000042fdc0      0xa24 lib/built-in.o
 .text.MD5Update
                0x00000000004307e4       0xc4 lib/built-in.o
 .text.MD5Final
                0x00000000004308a8       0xa0 lib/built-in.o
 .text.md5      0x0000000000430948       0x60 lib/built-in.o
                0x0000000000430948                md5
 .text.md5_wd   0x00000000004309a8       0x60 lib/built-in.o
                0x00000000004309a8                md5_wd
 .text.string_to_ip
                0x0000000000430a08       0x6c lib/built-in.o
                0x0000000000430a08                string_to_ip
 .text.qsort    0x0000000000430a74       0xec lib/built-in.o
                0x0000000000430a74                qsort
 .text.merge    0x0000000000430b60       0x68 lib/built-in.o
 .text.list_sort
                0x0000000000430bc8      0x194 lib/built-in.o
                0x0000000000430bc8                list_sort
 .text.sha1_process
                0x0000000000430d5c     0x1538 lib/built-in.o
 .text.sha1_update.part.0
                0x0000000000432294       0xb4 lib/built-in.o
 .text.sha1_starts
                0x0000000000432348       0x4c lib/built-in.o
                0x0000000000432348                sha1_starts
 .text.sha1_update
                0x0000000000432394        0xc lib/built-in.o
                0x0000000000432394                sha1_update
 .text.sha1_finish
                0x00000000004323a0      0x144 lib/built-in.o
                0x00000000004323a0                sha1_finish
 .text.sha1_csum_wd
                0x00000000004324e4       0x3c lib/built-in.o
                0x00000000004324e4                sha1_csum_wd
 .text.sha256_process
                0x0000000000432520     0x24c8 lib/built-in.o
 .text.sha256_update.part.0
                0x00000000004349e8       0xb4 lib/built-in.o
 .text.sha256_starts
                0x0000000000434a9c       0x70 lib/built-in.o
                0x0000000000434a9c                sha256_starts
 .text.sha256_update
                0x0000000000434b0c        0xc lib/built-in.o
                0x0000000000434b0c                sha256_update
 .text.sha256_finish
                0x0000000000434b18      0x1b0 lib/built-in.o
                0x0000000000434b18                sha256_finish
 .text.sha256_csum_wd
                0x0000000000434cc8       0x3c lib/built-in.o
                0x0000000000434cc8                sha256_csum_wd
 .text.get_prop_check_min_len
                0x0000000000434d04       0x3c lib/built-in.o
 .text.fdtdec_get_is_enabled
                0x0000000000434d40       0x3c lib/built-in.o
                0x0000000000434d40                fdtdec_get_is_enabled
 .text.fdtdec_get_alias_seq
                0x0000000000434d7c      0x118 lib/built-in.o
                0x0000000000434d7c                fdtdec_get_alias_seq
 .text.fdtdec_get_chosen_prop
                0x0000000000434e94       0x34 lib/built-in.o
                0x0000000000434e94                fdtdec_get_chosen_prop
 .text.fdtdec_get_chosen_node
                0x0000000000434ec8       0x28 lib/built-in.o
                0x0000000000434ec8                fdtdec_get_chosen_node
 .text.fdtdec_prepare_fdt
                0x0000000000434ef0       0x44 lib/built-in.o
                0x0000000000434ef0                fdtdec_prepare_fdt
 .text.fdtdec_lookup_phandle
                0x0000000000434f34       0x34 lib/built-in.o
                0x0000000000434f34                fdtdec_lookup_phandle
 .text.fdtdec_get_int_array
                0x0000000000434f68       0x60 lib/built-in.o
                0x0000000000434f68                fdtdec_get_int_array
 .text.fdtdec_get_bool
                0x0000000000434fc8       0x1c lib/built-in.o
                0x0000000000434fc8                fdtdec_get_bool
 .text.fdtdec_get_config_int
                0x0000000000434fe4       0x40 lib/built-in.o
                0x0000000000434fe4                fdtdec_get_config_int
 .text.fdtdec_get_config_string
                0x0000000000435024       0x3c lib/built-in.o
                0x0000000000435024                fdtdec_get_config_string
 .text.fdtdec_get_number
                0x0000000000435060       0x48 lib/built-in.o
                0x0000000000435060                fdtdec_get_number
 .text.fdtdec_get_addr_size_fixed
                0x00000000004350a8       0xbc lib/built-in.o
                0x00000000004350a8                fdtdec_get_addr_size_fixed
 .text.fdtdec_get_addr_size
                0x0000000000435164       0x34 lib/built-in.o
                0x0000000000435164                fdtdec_get_addr_size
 .text.fdt_get_resource
                0x0000000000435198       0xe0 lib/built-in.o
                0x0000000000435198                fdt_get_resource
 .text.fdtdec_setup_memory_size
                0x0000000000435278       0x68 lib/built-in.o
                0x0000000000435278                fdtdec_setup_memory_size
 .text.fdtdec_setup_memory_banksize
                0x00000000004352e0       0x7c lib/built-in.o
                0x00000000004352e0                fdtdec_setup_memory_banksize
 .text.fdtdec_setup
                0x000000000043535c       0x34 lib/built-in.o
                0x000000000043535c                fdtdec_setup
 .text.cmpkey   0x0000000000435390       0x14 lib/built-in.o
 .text._hdelete.isra.0
                0x00000000004353a4       0x50 lib/built-in.o
 .text.drop_var_from_set.part.1
                0x00000000004353f4       0x50 lib/built-in.o
 .text.match_string
                0x0000000000435444       0xb4 lib/built-in.o
 .text.match_entry
                0x00000000004354f8       0xb4 lib/built-in.o
 .text.hcreate_r
                0x00000000004355ac       0xa4 lib/built-in.o
                0x00000000004355ac                hcreate_r
 .text.hdestroy_r
                0x0000000000435650       0x74 lib/built-in.o
                0x0000000000435650                hdestroy_r
 .text.hsearch_r
                0x00000000004356c4      0x474 lib/built-in.o
                0x00000000004356c4                hsearch_r
 .text.hdelete_r
                0x0000000000435b38       0xec lib/built-in.o
                0x0000000000435b38                hdelete_r
 .text.hexport_r
                0x0000000000435c24      0x29c lib/built-in.o
                0x0000000000435c24                hexport_r
 .text.himport_r
                0x0000000000435ec0      0x3ec lib/built-in.o
                0x0000000000435ec0                himport_r
 .text.hwalk_r  0x00000000004362ac       0x5c lib/built-in.o
                0x00000000004362ac                hwalk_r
 .text.display_options
                0x0000000000436308       0x20 lib/built-in.o
                0x0000000000436308                display_options
 .text.print_size
                0x0000000000436328      0x144 lib/built-in.o
                0x0000000000436328                print_size
 .text.print_buffer
                0x000000000043646c      0x1b4 lib/built-in.o
                0x000000000043646c                print_buffer
 .text.crc32_no_comp
                0x0000000000436620       0xd4 lib/built-in.o
                0x0000000000436620                crc32_no_comp
 .text.crc32    0x00000000004366f4       0x14 lib/built-in.o
                0x00000000004366f4                crc32
 .text.crc32_wd
                0x0000000000436708        0x4 lib/built-in.o
                0x0000000000436708                crc32_wd
 .text.crc32_wd_buf
                0x000000000043670c       0x38 lib/built-in.o
                0x000000000043670c                crc32_wd_buf
 .text.__div64_32
                0x0000000000436744       0xd0 lib/built-in.o
                0x0000000000436744                __div64_32
 .text.hang     0x0000000000436814       0x1c lib/built-in.o
                0x0000000000436814                hang
 .text.skip_spaces
                0x0000000000436830       0x28 lib/built-in.o
                0x0000000000436830                skip_spaces
 .text.strim    0x0000000000436858       0x5c lib/built-in.o
                0x0000000000436858                strim
 .text.emit     0x00000000004368b4       0x24 lib/built-in.o
 .text.store_char_in_data
                0x00000000004368d8       0x28 lib/built-in.o
 .text.get_escape_char
                0x0000000000436900       0x84 lib/built-in.o
 .text.relocate
                0x0000000000436984       0x40 lib/built-in.o
 .text.match    0x00000000004369c4      0x3f4 lib/built-in.o
 .text.loop_greedy
                0x0000000000436db8       0x94 lib/built-in.o
 .text.loop_non_greedy
                0x0000000000436e4c       0x80 lib/built-in.o
 .text.quantifier
                0x0000000000436ecc       0x94 lib/built-in.o
 .text.fixup_branch
                0x0000000000436f60       0x3c lib/built-in.o
 .text.compile  0x0000000000436f9c      0x348 lib/built-in.o
 .text.slre_compile
                0x00000000004372e4       0xd0 lib/built-in.o
                0x00000000004372e4                slre_compile
 .text.slre_match
                0x00000000004373b4       0x9c lib/built-in.o
                0x00000000004373b4                slre_match
 .text.strncasecmp
                0x0000000000437450       0x80 lib/built-in.o
                0x0000000000437450                strncasecmp
 .text.strcasecmp
                0x00000000004374d0        0x8 lib/built-in.o
                0x00000000004374d0                strcasecmp
 .text.strcpy   0x00000000004374d8       0x18 lib/built-in.o
                0x00000000004374d8                strcpy
 .text.strncpy  0x00000000004374f0       0x24 lib/built-in.o
                0x00000000004374f0                strncpy
 .text.strcat   0x0000000000437514       0x30 lib/built-in.o
                0x0000000000437514                strcat
 .text.strncat  0x0000000000437544       0x50 lib/built-in.o
                0x0000000000437544                strncat
 .text.strcmp   0x0000000000437594       0x28 lib/built-in.o
                0x0000000000437594                strcmp
 .text.strncmp  0x00000000004375bc       0x3c lib/built-in.o
                0x00000000004375bc                strncmp
 .text.strchr   0x00000000004375f8       0x2c lib/built-in.o
                0x00000000004375f8                strchr
 .text.strlen   0x0000000000437624       0x24 lib/built-in.o
                0x0000000000437624                strlen
 .text.strlcpy  0x0000000000437648       0x50 lib/built-in.o
                0x0000000000437648                strlcpy
 .text.strrchr  0x0000000000437698       0x3c lib/built-in.o
                0x0000000000437698                strrchr
 .text.strnlen  0x00000000004376d4       0x30 lib/built-in.o
                0x00000000004376d4                strnlen
 .text.strdup   0x0000000000437704       0x34 lib/built-in.o
                0x0000000000437704                strdup
 .text.memmove  0x0000000000437738       0x48 lib/built-in.o
                0x0000000000437738                memmove
 .text.memcmp   0x0000000000437780       0x34 lib/built-in.o
                0x0000000000437780                memcmp
 .text.strstr   0x00000000004377b4       0x6c lib/built-in.o
                0x00000000004377b4                strstr
 .text.memchr   0x0000000000437820       0x30 lib/built-in.o
                0x0000000000437820                memchr
 .text.tick_to_time
                0x0000000000437850       0x64 lib/built-in.o
 .text.timer_read_counter
                0x00000000004378b4       0x18 lib/built-in.o
                0x00000000004378b4                timer_read_counter
 .text.get_ticks
                0x00000000004378cc       0x40 lib/built-in.o
                0x00000000004378cc                get_ticks
 .text.get_timer
                0x000000000043790c       0x18 lib/built-in.o
                0x000000000043790c                get_timer
 .text.timer_get_us
                0x0000000000437924       0x24 lib/built-in.o
                0x0000000000437924                timer_get_us
 .text.__udelay
                0x0000000000437948       0xa0 lib/built-in.o
                0x0000000000437948                __udelay
 .text.udelay   0x00000000004379e8       0x30 lib/built-in.o
                0x00000000004379e8                udelay
 .text.mdelay   0x0000000000437a18       0x24 lib/built-in.o
                0x0000000000437a18                mdelay
 .text.rand_r   0x0000000000437a3c       0x1c lib/built-in.o
                0x0000000000437a3c                rand_r
 .text.put_dec_trunc
                0x0000000000437a58       0xd4 lib/built-in.o
 .text.string   0x0000000000437b2c       0xbc lib/built-in.o
 .text.put_dec  0x0000000000437be8      0x140 lib/built-in.o
 .text.number   0x0000000000437d28      0x2b4 lib/built-in.o
 .text.vsnprintf_internal
                0x0000000000437fdc      0x680 lib/built-in.o
 .text.vscnprintf
                0x000000000043865c       0x24 lib/built-in.o
                0x000000000043865c                vscnprintf
 .text.snprintf
                0x0000000000438680       0x28 lib/built-in.o
                0x0000000000438680                snprintf
 .text.vsprintf
                0x00000000004386a8       0x10 lib/built-in.o
                0x00000000004386a8                vsprintf
 .text.sprintf  0x00000000004386b8       0x28 lib/built-in.o
                0x00000000004386b8                sprintf
 .text.printf   0x00000000004386e0       0x48 lib/built-in.o
                0x00000000004386e0                printf
 .text.vprintf  0x0000000000438728       0x3c lib/built-in.o
                0x0000000000438728                vprintf
 .text.simple_itoa
                0x0000000000438764       0x58 lib/built-in.o
                0x0000000000438764                simple_itoa
 .text.str2off  0x00000000004387bc       0x3c lib/built-in.o
                0x00000000004387bc                str2off
 .text.panic_finish
                0x00000000004387f8       0x30 lib/built-in.o
 .text.panic_str
                0x0000000000438828        0xc lib/built-in.o
                0x0000000000438828                panic_str
 .text.panic    0x0000000000438834       0x1c lib/built-in.o
                0x0000000000438834                panic
 .text.simple_strtoul
                0x0000000000438850       0xb4 lib/built-in.o
                0x0000000000438850                simple_strtoul
 .text.strict_strtoul
                0x0000000000438904       0x78 lib/built-in.o
                0x0000000000438904                strict_strtoul
 .text.simple_strtol
                0x000000000043897c       0x24 lib/built-in.o
                0x000000000043897c                simple_strtol
 .text.ustrtoul
                0x00000000004389a0       0x70 lib/built-in.o
                0x00000000004389a0                ustrtoul
 .text.simple_strtoull
                0x0000000000438a10       0xd8 lib/built-in.o
                0x0000000000438a10                simple_strtoull
 .text.ustrtoull
                0x0000000000438ae8       0x88 lib/built-in.o
                0x0000000000438ae8                ustrtoull
 .text.trailing_strtoln
                0x0000000000438b70       0x70 lib/built-in.o
                0x0000000000438b70                trailing_strtoln
 .text.trailing_strtol
                0x0000000000438be0        0x8 lib/built-in.o
                0x0000000000438be0                trailing_strtol
 .text.compute_ip_checksum
                0x0000000000438be8       0x64 net/built-in.o
                0x0000000000438be8                compute_ip_checksum
 .text.ip_checksum_ok
                0x0000000000438c4c       0x1c net/built-in.o
                0x0000000000438c4c                ip_checksum_ok
 .text.arp_init
                0x0000000000438c68       0x50 net/built-in.o
                0x0000000000438c68                arp_init
 .text.arp_raw_request
                0x0000000000438cb8       0xc0 net/built-in.o
                0x0000000000438cb8                arp_raw_request
 .text.arp_request
                0x0000000000438d78       0x84 net/built-in.o
                0x0000000000438d78                arp_request
 .text.arp_timeout_check
                0x0000000000438dfc       0x90 net/built-in.o
                0x0000000000438dfc                arp_timeout_check
 .text.arp_receive
                0x0000000000438e8c      0x214 net/built-in.o
                0x0000000000438e8c                arp_receive
 .text.bootp_handler
                0x00000000004390a0      0x314 net/built-in.o
 .text.bootp_reset
                0x00000000004393b4       0x44 net/built-in.o
                0x00000000004393b4                bootp_reset
 .text.bootp_request
                0x00000000004393f8      0x310 net/built-in.o
                0x00000000004393f8                bootp_request
 .text.bootp_timeout_handler
                0x0000000000439708       0x7c net/built-in.o
 .text.eth_get_uclass_priv
                0x0000000000439784       0x20 net/built-in.o
 .text.eth_pre_remove
                0x00000000004397a4       0x30 net/built-in.o
 .text.eth_write_hwaddr
                0x00000000004397d4       0xd8 net/built-in.o
 .text.on_ethaddr
                0x00000000004398ac       0x84 net/built-in.o
 .text.eth_post_probe
                0x0000000000439930      0x1d4 net/built-in.o
 .text.eth_post_bind
                0x0000000000439b04       0x34 net/built-in.o
 .text.eth_set_current_to_next
                0x0000000000439b38       0x38 net/built-in.o
                0x0000000000439b38                eth_set_current_to_next
 .text.eth_get_dev
                0x0000000000439b70       0x38 net/built-in.o
                0x0000000000439b70                eth_get_dev
 .text.eth_set_dev
                0x0000000000439ba8       0x40 net/built-in.o
                0x0000000000439ba8                eth_set_dev
 .text.eth_pre_unbind
                0x0000000000439be8       0x28 net/built-in.o
 .text.eth_get_dev_by_name
                0x0000000000439c10       0xf0 net/built-in.o
                0x0000000000439c10                eth_get_dev_by_name
 .text.eth_get_ethaddr
                0x0000000000439d00       0x20 net/built-in.o
                0x0000000000439d00                eth_get_ethaddr
 .text.eth_init_state_only
                0x0000000000439d20       0x38 net/built-in.o
                0x0000000000439d20                eth_init_state_only
 .text.eth_halt_state_only
                0x0000000000439d58       0x28 net/built-in.o
                0x0000000000439d58                eth_halt_state_only
 .text.eth_get_dev_index
                0x0000000000439d80       0x24 net/built-in.o
                0x0000000000439d80                eth_get_dev_index
 .text.eth_init
                0x0000000000439da4       0xf4 net/built-in.o
                0x0000000000439da4                eth_init
 .text.eth_halt
                0x0000000000439e98       0x3c net/built-in.o
                0x0000000000439e98                eth_halt
 .text.eth_is_active
                0x0000000000439ed4       0x38 net/built-in.o
                0x0000000000439ed4                eth_is_active
 .text.eth_send
                0x0000000000439f0c       0x50 net/built-in.o
                0x0000000000439f0c                eth_send
 .text.eth_rx   0x0000000000439f5c       0xac net/built-in.o
                0x0000000000439f5c                eth_rx
 .text.eth_initialize
                0x000000000043a008      0x100 net/built-in.o
                0x000000000043a008                eth_initialize
 .text.eth_parse_enetaddr
                0x000000000043a108       0x5c net/built-in.o
                0x000000000043a108                eth_parse_enetaddr
 .text.eth_getenv_enetaddr
                0x000000000043a164       0x5c net/built-in.o
                0x000000000043a164                eth_getenv_enetaddr
 .text.eth_setenv_enetaddr
                0x000000000043a1c0       0x34 net/built-in.o
                0x000000000043a1c0                eth_setenv_enetaddr
 .text.eth_getenv_enetaddr_by_index
                0x000000000043a1f4       0x4c net/built-in.o
                0x000000000043a1f4                eth_getenv_enetaddr_by_index
 .text.eth_setenv_enetaddr_by_index
                0x000000000043a240       0x4c net/built-in.o
                0x000000000043a240                eth_setenv_enetaddr_by_index
 .text.eth_common_init
                0x000000000043a28c       0x18 net/built-in.o
                0x000000000043a28c                eth_common_init
 .text.eth_mac_skip
                0x000000000043a2a4       0x40 net/built-in.o
                0x000000000043a2a4                eth_mac_skip
 .text.eth_get_name
                0x000000000043a2e4       0x28 net/built-in.o
                0x000000000043a2e4                eth_get_name
 .text.eth_current_changed
                0x000000000043a30c       0x90 net/built-in.o
                0x000000000043a30c                eth_current_changed
 .text.eth_try_another
                0x000000000043a39c       0x84 net/built-in.o
                0x000000000043a39c                eth_try_another
 .text.eth_set_current
                0x000000000043a420       0x90 net/built-in.o
                0x000000000043a420                eth_set_current
 .text.net_clear_handlers
                0x000000000043a4b0       0x34 net/built-in.o
 .text.start_again_timeout_handler
                0x000000000043a4e4       0x14 net/built-in.o
 .text.dummy_handler
                0x000000000043a4f8        0x4 net/built-in.o
 .text.on_ipaddr
                0x000000000043a4fc       0x30 net/built-in.o
 .text.on_gatewayip
                0x000000000043a52c       0x30 net/built-in.o
 .text.on_netmask
                0x000000000043a55c       0x30 net/built-in.o
 .text.on_serverip
                0x000000000043a58c       0x30 net/built-in.o
 .text.net_init_loop
                0x000000000043a5bc       0x2c net/built-in.o
 .text.net_auto_load
                0x000000000043a5e8       0x38 net/built-in.o
                0x000000000043a5e8                net_auto_load
 .text.net_init
                0x000000000043a620       0x70 net/built-in.o
                0x000000000043a620                net_init
 .text.net_start_again
                0x000000000043a690      0x168 net/built-in.o
                0x000000000043a690                net_start_again
 .text.net_loop
                0x000000000043a7f8      0x3bc net/built-in.o
                0x000000000043a7f8                net_loop
 .text.net_set_udp_handler
                0x000000000043abb4       0x20 net/built-in.o
                0x000000000043abb4                net_set_udp_handler
 .text.net_get_arp_handler
                0x000000000043abd4       0x10 net/built-in.o
                0x000000000043abd4                net_get_arp_handler
 .text.net_set_arp_handler
                0x000000000043abe4       0x20 net/built-in.o
                0x000000000043abe4                net_set_arp_handler
 .text.net_set_icmp_handler
                0x000000000043ac04       0x10 net/built-in.o
                0x000000000043ac04                net_set_icmp_handler
 .text.net_set_timeout_handler
                0x000000000043ac14       0x5c net/built-in.o
                0x000000000043ac14                net_set_timeout_handler
 .text.net_process_received_packet
                0x000000000043ac70      0x380 net/built-in.o
                0x000000000043ac70                net_process_received_packet
 .text.net_eth_hdr_size
                0x000000000043aff0       0x3c net/built-in.o
                0x000000000043aff0                net_eth_hdr_size
 .text.net_set_ether
                0x000000000043b02c       0xa4 net/built-in.o
                0x000000000043b02c                net_set_ether
 .text.net_update_ether
                0x000000000043b0d0       0x88 net/built-in.o
                0x000000000043b0d0                net_update_ether
 .text.net_set_ip_header
                0x000000000043b158       0x90 net/built-in.o
                0x000000000043b158                net_set_ip_header
 .text.net_set_udp_header
                0x000000000043b1e8       0x84 net/built-in.o
                0x000000000043b1e8                net_set_udp_header
 .text.net_send_udp_packet
                0x000000000043b26c      0x108 net/built-in.o
                0x000000000043b26c                net_send_udp_packet
 .text.copy_filename
                0x000000000043b374       0x44 net/built-in.o
                0x000000000043b374                copy_filename
 .text.on_bootfile
                0x000000000043b3b8       0x3c net/built-in.o
 .text.ip_to_string
                0x000000000043b3f4       0x3c net/built-in.o
                0x000000000043b3f4                ip_to_string
 .text.string_to_vlan
                0x000000000043b430       0x50 net/built-in.o
                0x000000000043b430                string_to_vlan
 .text.on_nvlan
                0x000000000043b480       0x30 net/built-in.o
 .text.on_vlan  0x000000000043b4b0       0x30 net/built-in.o
 .text.ping_timeout_handler
                0x000000000043b4e0       0x1c net/built-in.o
 .text.ping_start
                0x000000000043b4fc      0x11c net/built-in.o
                0x000000000043b4fc                ping_start
 .text.ping_receive
                0x000000000043b618       0xe0 net/built-in.o
                0x000000000043b618                ping_receive
 .text.tftp_complete
                0x000000000043b6f8       0x78 net/built-in.o
 .text.tftp_send
                0x000000000043b770      0x26c net/built-in.o
 .text.update_block_number
                0x000000000043b9dc       0xb4 net/built-in.o
 .text.tftp_handler
                0x000000000043ba90      0x350 net/built-in.o
 .text.tftp_timeout_handler
                0x000000000043bde0       0x88 net/built-in.o
 .text.icmp_handler
                0x000000000043be68       0x2c net/built-in.o
 .text.tftp_start
                0x000000000043be94      0x458 net/built-in.o
                0x000000000043be94                tftp_start
 .text.do_dm_dump_devres
                0x000000000043c2ec        0x8 test/dm/built-in.o
 .text.do_dm    0x000000000043c2f4       0x74 test/dm/built-in.o
 .text.do_dm_dump_uclass
                0x000000000043c368       0x10 test/dm/built-in.o
 .text.do_dm_dump_all
                0x000000000043c378       0x10 test/dm/built-in.o
 .text.__ashldi3
                0x000000000043c388       0x1c arch/arm/lib/lib.a(ashldi3.o)
                0x000000000043c388                __ashldi3
                0x000000000043c388                __aeabi_llsl
 .text.__udivsi3
                0x000000000043c3a4       0x9c arch/arm/lib/lib.a(lib1funcs.o)
                0x000000000043c3a4                __udivsi3
                0x000000000043c3a4                __aeabi_uidiv
 .text.__divsi3
                0x000000000043c440       0xcc arch/arm/lib/lib.a(lib1funcs.o)
                0x000000000043c440                __aeabi_idiv
                0x000000000043c440                __divsi3
 .text.__aeabi_uidivmod
                0x000000000043c50c       0x30 arch/arm/lib/lib.a(lib1funcs.o)
                0x000000000043c50c                __aeabi_uidivmod
                0x000000000043c524                __aeabi_idivmod
 .text.Ldiv0    0x000000000043c53c       0x10 arch/arm/lib/lib.a(lib1funcs.o)
 .text.__lshldi3
                0x000000000043c54c       0x1c arch/arm/lib/lib.a(lshrdi3.o)
                0x000000000043c54c                __aeabi_llsr
                0x000000000043c54c                __lshrdi3
 .text.__div0   0x000000000043c568        0x4 arch/arm/lib/lib.a(div0.o)
                0x000000000043c568                __div0

.glue_7         0x000000000043c56c        0x0
 .glue_7        0x000000000043c56c        0x0 linker stubs

.glue_7t        0x000000000043c56c        0x0
 .glue_7t       0x000000000043c56c        0x0 linker stubs

.vfp11_veneer   0x000000000043c56c        0x0
 .vfp11_veneer  0x000000000043c56c        0x0 linker stubs

.v4_bx          0x000000000043c56c        0x0
 .v4_bx         0x000000000043c56c        0x0 linker stubs

.iplt           0x000000000043c56c        0x0
 .iplt          0x000000000043c56c        0x0 arch/arm/cpu/armv7/start.o

efi_runtime_text
                0x000000000043c56c       0x24
                [!provide]                        PROVIDE (__start_efi_runtime_text, .)
 efi_runtime_text
                0x000000000043c56c       0x24 lib/built-in.o
                0x000000000043c56c                efi_reset_system
                0x000000000043c570                efi_get_time
                [!provide]                        PROVIDE (__stop_efi_runtime_text, .)
                0x000000000043c590                . = ALIGN (0x4)

.rodata         0x000000000043c590     0xe41e
 *(SORT(.rodata*))
 .rodata.efi_boot_services
                0x000000000043c590       0xc8 lib/built-in.o
 .rodata        0x000000000043c658       0x80 arch/arm/lib/built-in.o
 .rodata        0x000000000043c6d8       0xf4 cmd/built-in.o
 .rodata        0x000000000043c7cc       0x13 common/built-in.o
 *fill*         0x000000000043c7df        0x1 
 .rodata.CSWTCH.28
                0x000000000043c7e0       0x20 common/built-in.o
 .rodata.CSWTCH.35
                0x000000000043c800        0xc arch/arm/mach-zynq/built-in.o
 .rodata.CSWTCH.46
                0x000000000043c80c       0x20 disk/built-in.o
 .rodata.CSWTCH.97
                0x000000000043c82c       0x6c common/built-in.o
 .rodata.arasan_sdhci_ids
                0x000000000043c898       0x10 drivers/mmc/built-in.o
 .rodata.baudrate_table
                0x000000000043c8a8       0x18 drivers/serial/built-in.o
 .rodata.bin_format
                0x000000000043c8c0       0x34 drivers/built-in.o
 .rodata.boot_os
                0x000000000043c8f4       0x60 common/built-in.o
 .rodata.crc_table
                0x000000000043c954      0x400 lib/built-in.o
 .rodata.desc_and_len_tbl
                0x000000000043cd54       0x30 cmd/built-in.o
 .rodata.efi_con_in
                0x000000000043cd84        0xc lib/built-in.o
                0x000000000043cd84                efi_con_in
 .rodata.efi_con_out
                0x000000000043cd90       0x28 lib/built-in.o
                0x000000000043cd90                efi_con_out
 .rodata.efi_console_control
                0x000000000043cdb8        0xc lib/built-in.o
                0x000000000043cdb8                efi_console_control
 .rodata.efi_runtime_detach_list
                0x000000000043cdc4       0x38 lib/built-in.o
 .rodata.env_flags_varaccess_mask
                0x000000000043cdfc       0x10 common/built-in.o
 .rodata.ext_csd_bits.9506
                0x000000000043ce0c        0x8 drivers/mmc/built-in.o
 .rodata.ext_csd_bits.9682
                0x000000000043ce14       0x14 drivers/mmc/built-in.o
 .rodata.ext_to_hostcaps.9507
                0x000000000043ce28        0xc drivers/mmc/built-in.o
 .rodata.ext_to_hostcaps.9683
                0x000000000043ce34       0x1c drivers/mmc/built-in.o
 .rodata.fbase  0x000000000043ce50       0x10 drivers/mmc/built-in.o
 .rodata.fdt_errtable
                0x000000000043ce60       0x48 lib/built-in.o
 .rodata.fpga007s
                0x000000000043cea8       0x1c board/xilinx/zynq/built-in.o
 .rodata.fpga010
                0x000000000043cec4       0x1c board/xilinx/zynq/built-in.o
 .rodata.fpga012s
                0x000000000043cee0       0x1c board/xilinx/zynq/built-in.o
 .rodata.fpga014s
                0x000000000043cefc       0x1c board/xilinx/zynq/built-in.o
 .rodata.fpga015
                0x000000000043cf18       0x1c board/xilinx/zynq/built-in.o
 .rodata.fpga020
                0x000000000043cf34       0x1c board/xilinx/zynq/built-in.o
 .rodata.fpga030
                0x000000000043cf50       0x1c board/xilinx/zynq/built-in.o
 .rodata.fpga035
                0x000000000043cf6c       0x1c board/xilinx/zynq/built-in.o
 .rodata.fpga045
                0x000000000043cf88       0x1c board/xilinx/zynq/built-in.o
 .rodata.fpga100
                0x000000000043cfa4       0x1c board/xilinx/zynq/built-in.o
 .rodata.generic_simple_bus_ids
                0x000000000043cfc0       0x18 drivers/built-in.o
 .rodata.gpio_zynq_ops
                0x000000000043cfd8       0x28 drivers/gpio/built-in.o
 .rodata.if_type_uclass_id
                0x000000000043d000       0x2c drivers/built-in.o
 .rodata.if_typename_str
                0x000000000043d02c       0x2c drivers/built-in.o
 .rodata.mmc_blk_ops
                0x000000000043d058       0x10 drivers/mmc/built-in.o
 .rodata.offsets.11181
                0x000000000043d068       0x10 drivers/spi/built-in.o
 .rodata.op_adv
                0x000000000043d078      0x100 cmd/built-in.o
                0x000000000043d078                op_adv
 .rodata.op_table
                0x000000000043d178       0x68 cmd/built-in.o
 .rodata.phy_interface_strings
                0x000000000043d1e0       0x38 drivers/net/built-in.o
 .rodata.phy_interface_strings
                0x000000000043d218       0x38 drivers/net/phy/built-in.o
 .rodata.reg_0_5_desc_tbl
                0x000000000043d250       0x30 cmd/built-in.o
 .rodata.reg_0_desc_tbl
                0x000000000043d280       0x78 cmd/built-in.o
 .rodata.reg_1_desc_tbl
                0x000000000043d2f8       0xc0 cmd/built-in.o
 .rodata.reg_2_desc_tbl
                0x000000000043d3b8        0xc cmd/built-in.o
 .rodata.reg_3_desc_tbl
                0x000000000043d3c4       0x24 cmd/built-in.o
 .rodata.reg_4_desc_tbl
                0x000000000043d3e8       0x90 cmd/built-in.o
 .rodata.reg_5_desc_tbl
                0x000000000043d478       0x90 cmd/built-in.o
 .rodata.root_info
                0x000000000043d508        0x8 drivers/built-in.o
 .rodata.sd_au_size
                0x000000000043d510       0x40 drivers/mmc/built-in.o
 .rodata.sdhci_ops
                0x000000000043d550       0x1c drivers/mmc/built-in.o
                0x000000000043d550                sdhci_ops
 .rodata.smbios_write_funcs
                0x000000000043d56c       0x1c lib/built-in.o
 .rodata.spi_flash_ids
                0x000000000043d588      0x618 drivers/mtd/spi/built-in.o
                0x000000000043d588                spi_flash_ids
 .rodata.spi_flash_std_ids
                0x000000000043dba0       0x10 drivers/mtd/spi/built-in.o
 .rodata.spi_flash_std_ops
                0x000000000043dbb0        0xc drivers/mtd/spi/built-in.o
 .rodata.uimage_arch
                0x000000000043dbbc      0x138 common/built-in.o
 .rodata.uimage_comp
                0x000000000043dcf4       0x54 common/built-in.o
 .rodata.uimage_os
                0x000000000043dd48       0x6c common/built-in.o
 .rodata.uimage_type
                0x000000000043ddb4      0x180 common/built-in.o
 .rodata.widths.9508
                0x000000000043df34        0x8 drivers/mmc/built-in.o
 .rodata.widths.9684
                0x000000000043df3c       0x14 drivers/mmc/built-in.o
 .rodata.zynq_gem_ids
                0x000000000043df50       0x20 drivers/net/built-in.o
 .rodata.zynq_gem_ops
                0x000000000043df70       0x1c drivers/net/built-in.o
 .rodata.zynq_gpio_def
                0x000000000043df8c       0x3c drivers/gpio/built-in.o
 .rodata.zynq_gpio_ids
                0x000000000043dfc8       0x18 drivers/gpio/built-in.o
 .rodata.zynq_qspi_ids
                0x000000000043dfe0       0x10 drivers/spi/built-in.o
 .rodata.zynq_qspi_ops
                0x000000000043dff0       0x1c drivers/spi/built-in.o
 .rodata.zynq_serial_ids
                0x000000000043e00c       0x20 drivers/serial/built-in.o
 .rodata.zynq_serial_ops
                0x000000000043e02c       0x14 drivers/serial/built-in.o
 .rodata.zynqmp_gpio_def
                0x000000000043e040       0x3c drivers/gpio/built-in.o
 .rodata.crc16_tab
                0x000000000043e07c      0x200 lib/built-in.o
 .rodata.dbase.8149
                0x000000000043e27c       0x40 lib/built-in.o
 .rodata.dext.8150
                0x000000000043e2bc       0x40 lib/built-in.o
 .rodata.distfix
                0x000000000043e2fc       0x80 lib/built-in.o
 .rodata.lbase.8147
                0x000000000043e37c       0x3e lib/built-in.o
 .rodata.lenfix
                0x000000000043e3ba      0x800 lib/built-in.o
 .rodata.lext.8148
                0x000000000043ebba       0x3e lib/built-in.o
 .rodata.order.8243
                0x000000000043ebf8       0x26 lib/built-in.o
 .rodata        0x000000000043ec1e        0x7 net/built-in.o
 .rodata.CSWTCH.23
                0x000000000043ec25       0x16 common/built-in.o
 .rodata.CSWTCH.28
                0x000000000043ec3b        0x4 arch/arm/mach-zynq/built-in.o
 .rodata.__FUNCTION__.8023
                0x000000000043ec3f        0xc drivers/built-in.o
 .rodata.__FUNCTION__.8037
                0x000000000043ec4b        0xc drivers/built-in.o
 .rodata.__FUNCTION__.8043
                0x000000000043ec57        0xc drivers/built-in.o
 .rodata.__FUNCTION__.8760
                0x000000000043ec63       0x17 common/built-in.o
 .rodata.__FUNCTION__.8906
                0x000000000043ec7a       0x17 common/built-in.o
 .rodata.__func__.10056
                0x000000000043ec91        0xe drivers/net/built-in.o
 .rodata.__func__.7953
                0x000000000043ec9f        0xe common/built-in.o
 .rodata.__func__.7988
                0x000000000043ecad       0x10 common/built-in.o
 .rodata.__func__.8004
                0x000000000043ecbd        0xb common/built-in.o
 .rodata.__func__.8011
                0x000000000043ecc8        0xb common/built-in.o
 .rodata.__func__.8016
                0x000000000043ecd3       0x13 drivers/built-in.o
 .rodata.__func__.8024
                0x000000000043ece6        0xc drivers/built-in.o
 .rodata.__func__.8031
                0x000000000043ecf2        0xe drivers/built-in.o
 .rodata.__func__.8038
                0x000000000043ed00        0xc drivers/built-in.o
 .rodata.__func__.8109
                0x000000000043ed0c        0xe drivers/built-in.o
 .rodata.__func__.8127
                0x000000000043ed1a        0x9 drivers/built-in.o
 .rodata.__func__.8142
                0x000000000043ed23        0xc drivers/built-in.o
 .rodata.__func__.8154
                0x000000000043ed2f        0xa drivers/built-in.o
 .rodata.__func__.8167
                0x000000000043ed39        0xa drivers/built-in.o
 .rodata.__func__.8180
                0x000000000043ed43        0xa drivers/built-in.o
 .rodata.__func__.8313
                0x000000000043ed4d       0x12 drivers/built-in.o
 .rodata.__func__.8340
                0x000000000043ed5f       0x13 drivers/built-in.o
 .rodata.__func__.8361
                0x000000000043ed72        0xe cmd/built-in.o
 .rodata.__func__.8374
                0x000000000043ed80       0x16 drivers/built-in.o
 .rodata.__func__.8392
                0x000000000043ed96       0x18 drivers/built-in.o
 .rodata.__func__.8398
                0x000000000043edae        0xe cmd/built-in.o
 .rodata.__func__.8402
                0x000000000043edbc        0xa drivers/built-in.o
 .rodata.__func__.8433
                0x000000000043edc6        0xc drivers/built-in.o
 .rodata.__func__.8472
                0x000000000043edd2        0xc drivers/mmc/built-in.o
 .rodata.__func__.8503
                0x000000000043edde       0x14 drivers/mmc/built-in.o
 .rodata.__func__.8526
                0x000000000043edf2       0x13 drivers/mmc/built-in.o
 .rodata.__func__.8555
                0x000000000043ee05       0x10 drivers/mmc/built-in.o
 .rodata.__func__.8607
                0x000000000043ee15        0xb drivers/mmc/built-in.o
 .rodata.__func__.8625
                0x000000000043ee20       0x10 drivers/mmc/built-in.o
 .rodata.__func__.8637
                0x000000000043ee30       0x18 common/built-in.o
 .rodata.__func__.8811
                0x000000000043ee48        0xc lib/built-in.o
 .rodata.__func__.9083
                0x000000000043ee54        0xe drivers/built-in.o
 .rodata.__func__.9327
                0x000000000043ee62        0xd drivers/built-in.o
 .rodata.__func__.9333
                0x000000000043ee6f       0x11 drivers/built-in.o
 .rodata.__func__.9337
                0x000000000043ee80       0x18 drivers/built-in.o
 .rodata.__func__.9341
                0x000000000043ee98       0x18 drivers/built-in.o
 .rodata.__func__.9345
                0x000000000043eeb0        0xd drivers/built-in.o
 .rodata.__func__.9349
                0x000000000043eebd       0x14 drivers/built-in.o
 .rodata.__func__.9353
                0x000000000043eed1       0x14 drivers/built-in.o
 .rodata._ctype
                0x000000000043eee5      0x100 lib/built-in.o
                0x000000000043eee5                _ctype
 .rodata._do_env_set.isra.0.str1.1
                0x000000000043efe5       0x7c cmd/built-in.o
 .rodata._do_help.str1.1
                0x000000000043f061       0x5f common/built-in.o
 .rodata.announce_dram_init.str1.1
                0x000000000043f0c0        0x8 common/built-in.o
 .rodata.arasan_sdhci_ofdata_to_platdata.str1.1
                0x000000000043f0c8       0x31 drivers/mmc/built-in.o
 .rodata.arp_receive.str1.1
                0x000000000043f0f9       0x14 net/built-in.o
 .rodata.arp_request.str1.1
                0x000000000043f10d       0x2a net/built-in.o
 .rodata.arp_timeout_check.str1.1
                0x000000000043f137       0x2b net/built-in.o
 .rodata.autoboot_command.str1.1
                0x000000000043f162       0x31 common/built-in.o
 .rodata.b_addqchr.str1.1
                0x000000000043f193        0x5 common/built-in.o
 .rodata.bad_mode.str1.1
                0x000000000043f198       0x13 arch/arm/lib/built-in.o
 .rodata.binary_test.str1.1
                0x000000000043f1ab       0x17 cmd/built-in.o
 .rodata.blk_create_devicef.str1.1
                0x000000000043f1c2        0x6 drivers/built-in.o
 .rodata.blk_get_device_by_str.str1.1
                0x000000000043f1c8       0x6a disk/built-in.o
 .rodata.blk_get_device_part_str.str1.1
                0x000000000043f232      0x112 disk/built-in.o
                                        0x11b (size before relaxing)
 .rodata.boot_fdt_add_mem_rsv_regions.str1.1
                0x000000000043f344       0x35 common/built-in.o
 .rodata.boot_get_fdt.str1.1
                0x000000000043f379      0x1b5 common/built-in.o
                                        0x1d4 (size before relaxing)
 .rodata.boot_get_fpga.str1.1
                0x000000000043f52e       0x5f common/built-in.o
                                         0x69 (size before relaxing)
 .rodata.boot_get_loadable.str1.1
                0x000000000043f58d        0xa common/built-in.o
 .rodata.boot_get_ramdisk.str1.1
                0x000000000043f597       0xb9 common/built-in.o
                                        0x115 (size before relaxing)
 .rodata.boot_get_setup_fit.str1.1
                0x000000000043f650       0x8f common/built-in.o
                                          0x6 (size before relaxing)
 .rodata.boot_jump_linux.str1.1
                0x000000000043f650       0x5c arch/arm/lib/built-in.o
                                         0x5d (size before relaxing)
 .rodata.boot_prep_linux.str1.1
                0x000000000043f6ac       0x5a arch/arm/lib/built-in.o
 .rodata.boot_prep_vxworks.str1.1
                0x000000000043f706       0x2a arch/arm/lib/built-in.o
 .rodata.boot_ramdisk_high.str1.1
                0x000000000043f730       0x54 common/built-in.o
 .rodata.boot_relocate_fdt.str1.1
                0x000000000043f784       0xcf common/built-in.o
                                         0xd3 (size before relaxing)
 .rodata.bootdelay_process.str1.1
                0x000000000043f853       0x30 common/built-in.o
                                         0x42 (size before relaxing)
 .rodata.bootm_decomp_image.str1.1
                0x000000000043f883       0x99 common/built-in.o
                                         0xc0 (size before relaxing)
 .rodata.bootm_find_images.str1.1
                0x000000000043f91c       0x90 common/built-in.o
 .rodata.bootm_maybe_autostart.str1.1
                0x000000000043f9ac       0x3b cmd/built-in.o
 .rodata.bootp_handler.str1.1
                0x000000000043f9e7       0x5c net/built-in.o
 .rodata.bootp_request.str1.1
                0x000000000043fa43       0x3c net/built-in.o
 .rodata.bootp_timeout_handler.str1.1
                0x000000000043fa7f       0x16 net/built-in.o
 .rodata.bootz_setup.str1.1
                0x000000000043fa95       0x48 arch/arm/lib/built-in.o
 .rodata.calculate_hash.str1.1
                0x000000000043fadd       0x8f common/built-in.o
                                         0x16 (size before relaxing)
 .rodata.check_cache_range.str1.1
                0x000000000043fadd       0x35 arch/arm/lib/built-in.o
 .rodata.check_gpio.str1.1
                0x000000000043fb12       0x25 drivers/gpio/built-in.o
 .rodata.check_reserved.str1.1
                0x000000000043fb37       0x27 drivers/gpio/built-in.o
                                         0x28 (size before relaxing)
 .rodata.checkboard.str1.1
                0x000000000043fb5e       0x14 board/xilinx/zynq/built-in.o
 .rodata.cli_process_fdt.str1.1
                0x000000000043fb72        0xb common/built-in.o
                                         0x13 (size before relaxing)
 .rodata.cli_readline_into_buffer.str1.1
                0x000000000043fb7d        0x7 common/built-in.o
                                          0x8 (size before relaxing)
 .rodata.cli_secure_boot_cmd.str1.1
                0x000000000043fb84       0x50 common/built-in.o
 .rodata.cmd_process.str1.1
                0x000000000043fbd4       0x3f common/built-in.o
 .rodata.cmd_process_error.str1.1
                0x000000000043fc13       0x1f common/built-in.o
 .rodata.cmd_usage.str1.1
                0x000000000043fc32       0x36 common/built-in.o
 .rodata.compile.str1.1
                0x000000000043fc68       0x4a lib/built-in.o
 .rodata.console_init_r.str1.1
                0x000000000043fcb2        0x7 common/built-in.o
 .rodata.cread_add_char.str1.1
                0x000000000043fcb9        0x5 common/built-in.o
 .rodata.default_environment
                0x000000000043fcbe      0x763 common/built-in.o
                0x000000000043fcbe                default_environment
 .rodata.delete_param_from_memory.str1.1
                0x0000000000440421        0xe cmd/built-in.o
 .rodata.dev_get_addr_index.str1.1
                0x000000000044042f        0x4 drivers/built-in.o
 .rodata.dev_get_platdata.str1.1
                0x000000000044042f       0x11 drivers/built-in.o
 .rodata.dev_print.str1.1
                0x0000000000440440      0x14d disk/built-in.o
                                        0x15e (size before relaxing)
 .rodata.device_bind_common.isra.0.str1.1
                0x000000000044058d       0x5b drivers/built-in.o
 .rodata.device_probe.str1.1
                0x00000000004405e8       0x30 drivers/built-in.o
 .rodata.device_remove.str1.1
                0x0000000000440618       0x98 drivers/built-in.o
 .rodata.digits.7804
                0x00000000004406b0       0x10 lib/built-in.o
 .rodata.disk_write.str1.1
                0x00000000004406c0       0x18 fs/built-in.o
 .rodata.display_options.str1.1
                0x00000000004406d8        0x7 lib/built-in.o
 .rodata.dm_dump_all.str1.1
                0x00000000004406df       0x1c drivers/built-in.o
                                         0x46 (size before relaxing)
 .rodata.dm_dump_uclass.str1.1
                0x00000000004406fb       0x32 drivers/built-in.o
                                         0x34 (size before relaxing)
 .rodata.dm_gpio_set_value.str1.1
                0x000000000044072d        0xa drivers/gpio/built-in.o
 .rodata.dm_init.str1.1
                0x0000000000440737       0x25 drivers/built-in.o
 .rodata.dm_root.str1.1
                0x000000000044075c       0x25 drivers/built-in.o
 .rodata.dm_scan_fdt_node.str1.1
                0x0000000000440781       0x31 drivers/built-in.o
 .rodata.dm_scan_platdata.str1.1
                0x00000000004407b2       0x1d drivers/built-in.o
 .rodata.do_bdinfo.str1.1
                0x00000000004407cf       0xe0 cmd/built-in.o
 .rodata.do_bootd.str1.1
                0x00000000004408af        0x8 cmd/built-in.o
 .rodata.do_bootefi.str1.1
                0x00000000004408b7       0x4d cmd/built-in.o
 .rodata.do_bootefi_exec.str1.1
                0x0000000000440904       0x59 cmd/built-in.o
 .rodata.do_bootm.str1.1
                0x000000000044095d       0x2a cmd/built-in.o
 .rodata.do_bootm_netbsd.str1.1
                0x0000000000440987       0x49 common/built-in.o
                                         0x51 (size before relaxing)
 .rodata.do_bootm_plan9.str1.1
                0x00000000004409d0       0x43 common/built-in.o
                                         0x53 (size before relaxing)
 .rodata.do_bootm_rtems.str1.1
                0x0000000000440a13       0x95 common/built-in.o
                                         0x9b (size before relaxing)
 .rodata.do_bootm_standalone.str1.1
                0x0000000000440aa8        0x3 common/built-in.o
                                         0x16 (size before relaxing)
 .rodata.do_bootm_states.str1.1
                0x0000000000440aab      0x287 common/built-in.o
                                        0x2ff (size before relaxing)
 .rodata.do_bootm_vxworks.str1.1
                0x0000000000440d32        0x8 common/built-in.o
 .rodata.do_bootvx_fdt.str1.1
                0x0000000000440d32       0x6e common/built-in.o
                                         0x75 (size before relaxing)
 .rodata.do_coninfo.str1.1
                0x0000000000440da0       0x2c cmd/built-in.o
                                         0x30 (size before relaxing)
 .rodata.do_data_abort.str1.1
                0x0000000000440dcc        0xc arch/arm/lib/built-in.o
 .rodata.do_dcache.str1.1
                0x0000000000440dd8       0x21 cmd/built-in.o
 .rodata.do_echo.str1.1
                0x0000000000440df9        0x3 cmd/built-in.o
 .rodata.do_env_default.str1.1
                0x0000000000440dfc       0x25 cmd/built-in.o
 .rodata.do_env_edit.part.2.str1.1
                0x0000000000440e21        0x7 cmd/built-in.o
                                          0xa (size before relaxing)
 .rodata.do_env_export.str1.1
                0x0000000000440e28       0x41 cmd/built-in.o
                                         0x4a (size before relaxing)
 .rodata.do_env_import.str1.1
                0x0000000000440e69      0x152 cmd/built-in.o
 .rodata.do_env_print.str1.1
                0x0000000000440fbb       0x3d cmd/built-in.o
 .rodata.do_env_save.str1.1
                0x0000000000440ff8       0x1d cmd/built-in.o
 .rodata.do_fat_fsinfo.str1.1
                0x0000000000441015       0x56 cmd/built-in.o
 .rodata.do_fat_fswrite.str1.1
                0x000000000044106b       0x6b cmd/built-in.o
 .rodata.do_fat_read_at.str1.1
                0x00000000004410d6       0x82 fs/built-in.o
                                         0x83 (size before relaxing)
 .rodata.do_fat_write.str1.1
                0x0000000000441158       0xc3 fs/built-in.o
 .rodata.do_fdt.str1.1
                0x000000000044121b      0x46a cmd/built-in.o
                                        0x491 (size before relaxing)
 .rodata.do_fiq.str1.1
                0x0000000000441685       0x18 arch/arm/lib/built-in.o
 .rodata.do_fixup_by_path.str1.1
                0x000000000044169d       0x29 common/built-in.o
 .rodata.do_fpga.str1.1
                0x00000000004416c6       0x83 cmd/built-in.o
                                         0x98 (size before relaxing)
 .rodata.do_fs_uuid.str1.1
                0x0000000000441749        0x4 fs/built-in.o
 .rodata.do_hsconf.str1.1
                0x0000000000441749       0x4c cmd/built-in.o
                                         0x5f (size before relaxing)
 .rodata.do_icache.str1.1
                0x0000000000441795       0x1d cmd/built-in.o
                                         0x20 (size before relaxing)
 .rodata.do_imgextract.str1.1
                0x00000000004417b2      0x1af cmd/built-in.o
                                        0x296 (size before relaxing)
 .rodata.do_irq.str1.1
                0x0000000000441961       0x18 arch/arm/lib/built-in.o
                                         0x13 (size before relaxing)
 .rodata.do_itest.str1.1
                0x0000000000441961       0x1e cmd/built-in.o
 .rodata.do_load.str1.1
                0x000000000044197f       0x42 fs/built-in.o
                                         0x5b (size before relaxing)
 .rodata.do_load_serial.str1.1
                0x00000000004419c1       0x6b cmd/built-in.o
 .rodata.do_load_serial_bin.str1.1
                0x0000000000441a2c      0x153 cmd/built-in.o
                                        0x159 (size before relaxing)
 .rodata.do_load_wrapper.str1.1
                0x0000000000441b7f        0x1 cmd/built-in.o
 .rodata.do_ls.str1.1
                0x0000000000441b7f        0x2 fs/built-in.o
 .rodata.do_mdio.str1.1
                0x0000000000441b7f       0x5e cmd/built-in.o
                                         0x65 (size before relaxing)
 .rodata.do_mem_base.str1.1
                0x0000000000441bdd       0x17 cmd/built-in.o
 .rodata.do_mem_cmp.str1.1
                0x0000000000441bf4       0x6e cmd/built-in.o
                                         0x73 (size before relaxing)
 .rodata.do_mem_cp.str1.1
                0x0000000000441c62       0x11 cmd/built-in.o
 .rodata.do_mem_crc.str1.1
                0x0000000000441c73        0x6 cmd/built-in.o
 .rodata.do_mii.str1.1
                0x0000000000441c79      0x290 cmd/built-in.o
                                        0x2b0 (size before relaxing)
 .rodata.do_mmc_dev.str1.1
                0x0000000000441f09       0x89 cmd/built-in.o
 .rodata.do_mmc_erase.str1.1
                0x0000000000441f92       0x67 cmd/built-in.o
 .rodata.do_mmc_hwpartition.str1.1
                0x0000000000441ff9      0x126 cmd/built-in.o
                                        0x142 (size before relaxing)
 .rodata.do_mmc_part.str1.1
                0x000000000044211f       0x15 cmd/built-in.o
 .rodata.do_mmc_read.str1.1
                0x0000000000442134       0x43 cmd/built-in.o
 .rodata.do_mmc_setdsr.str1.1
                0x0000000000442177       0x1d cmd/built-in.o
 .rodata.do_mmc_write.str1.1
                0x0000000000442194       0x47 cmd/built-in.o
 .rodata.do_mmcinfo.str1.1
                0x00000000004421db      0x107 cmd/built-in.o
                                        0x159 (size before relaxing)
 .rodata.do_mmcops.str1.1
                0x00000000004422e2       0x19 cmd/built-in.o
 .rodata.do_not_used.str1.1
                0x00000000004422fb        0xa arch/arm/lib/built-in.o
 .rodata.do_oscheck.str1.1
                0x0000000000442305      0x112 common/built-in.o
                                        0x130 (size before relaxing)
 .rodata.do_ping.str1.1
                0x0000000000442417       0x35 cmd/built-in.o
 .rodata.do_prefetch_abort.str1.1
                0x000000000044244c       0x10 arch/arm/lib/built-in.o
 .rodata.do_reset.str1.1
                0x000000000044245c        0xf arch/arm/lib/built-in.o
 .rodata.do_run.str1.1
                0x000000000044246b       0x1c common/built-in.o
 .rodata.do_save.str1.1
                0x000000000044246b       0x1d fs/built-in.o
 .rodata.do_save_serial.str1.1
                0x0000000000442488       0xb3 cmd/built-in.o
 .rodata.do_showvar.str1.1
                0x000000000044253b        0xc common/built-in.o
                                         0x2f (size before relaxing)
 .rodata.do_size.str1.1
                0x0000000000442547        0x9 fs/built-in.o
 .rodata.do_software_interrupt.str1.1
                0x0000000000442547       0x14 arch/arm/lib/built-in.o
 .rodata.do_source.str1.1
                0x000000000044255b       0x1e cmd/built-in.o
 .rodata.do_spi.str1.1
                0x0000000000442579       0x73 cmd/built-in.o
                                         0x75 (size before relaxing)
 .rodata.do_spi_flash.str1.1
                0x00000000004425ec      0x1d4 cmd/built-in.o
                                        0x1fd (size before relaxing)
 .rodata.do_undefined_instruction.str1.1
                0x00000000004427c0       0x17 arch/arm/lib/built-in.o
 .rodata.do_version.str1.1
                0x00000000004427d7       0x6f cmd/built-in.o
 .rodata.drv_nc_init.str1.1
                0x0000000000442846        0xe drivers/net/built-in.o
                                          0x3 (size before relaxing)
 .rodata.efi_block_io_guid
                0x0000000000442846       0x10 lib/built-in.o
 .rodata.efi_cout_clear_screen.str1.1
                0x0000000000442856        0x5 lib/built-in.o
 .rodata.efi_cout_enable_cursor.str1.1
                0x000000000044285b        0x8 lib/built-in.o
 .rodata.efi_cout_query_mode.str1.1
                0x0000000000442863        0x6 lib/built-in.o
 .rodata.efi_cout_set_cursor_position.str1.1
                0x0000000000442869        0x9 lib/built-in.o
 .rodata.efi_disk_register.str1.1
                0x0000000000442872       0x25 lib/built-in.o
 .rodata.efi_guid_console_control
                0x0000000000442897       0x10 lib/built-in.o
                0x0000000000442897                efi_guid_console_control
 .rodata.efi_guid_device_path
                0x00000000004428a7       0x10 lib/built-in.o
                0x00000000004428a7                efi_guid_device_path
 .rodata.efi_guid_loaded_image
                0x00000000004428b7       0x10 lib/built-in.o
                0x00000000004428b7                efi_guid_loaded_image
 .rodata.efi_load_pe.str1.1
                0x00000000004428c7       0xa0 lib/built-in.o
 .rodata.efi_net_guid
                0x0000000000442967       0x10 lib/built-in.o
 .rodata.efi_pxe_guid
                0x0000000000442977       0x10 lib/built-in.o
 .rodata.efi_runtime_relocate.str1.1
                0x0000000000442987       0x34 lib/built-in.o
 .rodata.efi_set_bootdev.str1.1
                0x00000000004429bb        0xd cmd/built-in.o
                                         0x10 (size before relaxing)
 .rodata.efi_set_timer.str1.1
                0x00000000004429c8       0x2b lib/built-in.o
 .rodata.emit.str1.1
                0x00000000004429f3       0x1f lib/built-in.o
 .rodata.env_callback_init.str1.1
                0x0000000000442a12        0xb common/built-in.o
 .rodata.env_export.str1.1
                0x0000000000442a1d       0x3d common/built-in.o
 .rodata.env_flags_init.str1.1
                0x0000000000442a1d        0x7 common/built-in.o
 .rodata.env_flags_parse_varaccess.str1.1
                0x0000000000442a24       0x3d common/built-in.o
 .rodata.env_flags_parse_vartype.str1.1
                0x0000000000442a61       0x34 common/built-in.o
 .rodata.env_flags_validate.str1.1
                0x0000000000442a95       0xb2 common/built-in.o
                                         0xb3 (size before relaxing)
 .rodata.env_flags_varaccess_rep
                0x0000000000442b47        0x5 common/built-in.o
 .rodata.env_flags_vartype_rep
                0x0000000000442b4c        0x7 common/built-in.o
 .rodata.env_import.str1.1
                0x0000000000442b53       0x55 common/built-in.o
 .rodata.env_print.str1.1
                0x0000000000442ba8       0x2c cmd/built-in.o
 .rodata.env_relocate_spec.str1.1
                0x0000000000442bd4       0x33 common/built-in.o
 .rodata.erase_seq
                0x0000000000442c07        0x4 common/built-in.o
 .rodata.eth_current_changed.str1.1
                0x0000000000442c0b       0x14 net/built-in.o
 .rodata.eth_get_name.str1.1
                0x0000000000442c0b        0x8 net/built-in.o
 .rodata.eth_getenv_enetaddr_by_index.str1.1
                0x0000000000442c0b       0x10 net/built-in.o
 .rodata.eth_init.str1.1
                0x0000000000442c1b       0x11 net/built-in.o
                                         0x28 (size before relaxing)
 .rodata.eth_initialize.str1.1
                0x0000000000442c2c       0x1f net/built-in.o
 .rodata.eth_mac_skip.str1.1
                0x0000000000442c4b       0x18 net/built-in.o
 .rodata.eth_post_bind.str1.1
                0x0000000000442c63       0x2b net/built-in.o
 .rodata.eth_post_probe.str1.1
                0x0000000000442c8e       0xcb net/built-in.o
 .rodata.eth_set_current.str1.1
                0x0000000000442d59        0x9 net/built-in.o
 .rodata.eth_setenv_enetaddr.str1.1
                0x0000000000442d59        0x4 net/built-in.o
 .rodata.eth_write_hwaddr.str1.1
                0x0000000000442d5d       0x4e net/built-in.o
 .rodata.fat_read_file.str1.1
                0x0000000000442dab       0x1e fs/built-in.o
 .rodata.fat_set_blk_dev.str1.1
                0x0000000000442dc9        0x3 fs/built-in.o
                                          0xd (size before relaxing)
 .rodata.fdt_address_cells.str1.1
                0x0000000000442dcc        0xf lib/built-in.o
 .rodata.fdt_chosen.str1.1
                0x0000000000442ddb       0x35 common/built-in.o
                                         0x3e (size before relaxing)
 .rodata.fdt_error.str1.1
                0x0000000000442e10       0x2d common/built-in.o
 .rodata.fdt_find_or_add_subnode.str1.1
                0x0000000000442e3d        0xc common/built-in.o
 .rodata.fdt_fixup_ethernet.str1.1
                0x0000000000442e49       0x2e common/built-in.o
                                         0x42 (size before relaxing)
 .rodata.fdt_fixup_memory_banks.str1.1
                0x0000000000442e77       0x85 common/built-in.o
                                         0x94 (size before relaxing)
 .rodata.fdt_get_alias_namelen.str1.1
                0x0000000000442efc        0x9 lib/built-in.o
 .rodata.fdt_get_phandle.str1.1
                0x0000000000442efc        0xe lib/built-in.o
                                         0x16 (size before relaxing)
 .rodata.fdt_initrd.str1.1
                0x0000000000442f0a       0x90 common/built-in.o
                                         0x97 (size before relaxing)
 .rodata.fdt_node_check_compatible.str1.1
                0x0000000000442f9a        0xb lib/built-in.o
 .rodata.fdt_root.str1.1
                0x0000000000442f9a       0x4e common/built-in.o
 .rodata.fdt_size_cells.str1.1
                0x0000000000442fe8        0xc lib/built-in.o
 .rodata.fdt_strerror.str1.1
                0x0000000000442fe8       0x31 lib/built-in.o
 .rodata.fdt_translate_address.str1.1
                0x0000000000443019       0x22 common/built-in.o
 .rodata.fdt_valid.str1.1
                0x000000000044303b       0x79 cmd/built-in.o
                                         0x7b (size before relaxing)
 .rodata.fdtdec_add_aliases_for_id.str1.1
                0x00000000004430b4        0x9 lib/built-in.o
 .rodata.fdtdec_decode_memory_region.str1.1
                0x00000000004430b4       0x18 lib/built-in.o
                                         0x21 (size before relaxing)
 .rodata.fdtdec_get_chosen_prop.str1.1
                0x00000000004430cc        0x8 lib/built-in.o
 .rodata.fdtdec_get_config_int.str1.1
                0x00000000004430cc        0x8 lib/built-in.o
 .rodata.fdtdec_get_is_enabled.str1.1
                0x00000000004430d4        0x5 lib/built-in.o
                                          0xc (size before relaxing)
 .rodata.fdtdec_prepare_fdt.str1.1
                0x00000000004430d9       0x96 lib/built-in.o
 .rodata.fdtdec_read_fmap_entry.str1.1
                0x000000000044316f        0x9 lib/built-in.o
                                         0x1b (size before relaxing)
 .rodata.fdtdec_setup.str1.1
                0x0000000000443178        0xf lib/built-in.o
 .rodata.file_fat_detectfs.str1.1
                0x0000000000443178       0x64 fs/built-in.o
                                         0x84 (size before relaxing)
 .rodata.file_fat_read_at.str1.1
                0x00000000004431dc        0xc fs/built-in.o
 .rodata.file_fat_write.str1.1
                0x00000000004431e8       0x40 fs/built-in.o
 .rodata.file_get.str1.1
                0x0000000000443228        0x7 common/built-in.o
                                          0xa (size before relaxing)
 .rodata.find_mmc_device.str1.1
                0x000000000044322f       0x19 drivers/mmc/built-in.o
 .rodata.fit_all_image_verify.str1.1
                0x0000000000443248       0x7a common/built-in.o
 .rodata.fit_conf_find_compat.str1.1
                0x00000000004432c2       0x1b common/built-in.o
                                         0x1f (size before relaxing)
 .rodata.fit_conf_get_node.str1.1
                0x00000000004432dd        0x8 common/built-in.o
 .rodata.fit_conf_print.str1.1
                0x00000000004432dd       0x7b common/built-in.o
                                         0x99 (size before relaxing)
 .rodata.fit_get_desc.str1.1
                0x0000000000443358        0xc common/built-in.o
 .rodata.fit_image_get_address.str1.1
                0x0000000000443364       0x1d common/built-in.o
 .rodata.fit_image_get_arch.str1.1
                0x0000000000443381        0x5 common/built-in.o
 .rodata.fit_image_get_comp.str1.1
                0x0000000000443386        0xc common/built-in.o
 .rodata.fit_image_get_data.str1.1
                0x0000000000443386        0x5 common/built-in.o
 .rodata.fit_image_get_entry.str1.1
                0x0000000000443386        0x6 common/built-in.o
 .rodata.fit_image_get_load.str1.1
                0x000000000044338c        0x5 common/built-in.o
 .rodata.fit_image_get_node.str1.1
                0x000000000044338c        0x8 common/built-in.o
 .rodata.fit_image_get_os.str1.1
                0x0000000000443394        0x8 common/built-in.o
                                          0x3 (size before relaxing)
 .rodata.fit_image_get_type.str1.1
                0x0000000000443394        0x8 common/built-in.o
                                          0x5 (size before relaxing)
 .rodata.fit_image_hash_get_algo.str1.1
                0x0000000000443394        0x5 common/built-in.o
 .rodata.fit_image_hash_get_value.str1.1
                0x0000000000443399        0x5 common/built-in.o
                                          0x6 (size before relaxing)
 .rodata.fit_image_load.str1.1
                0x0000000000443399      0x1cd common/built-in.o
                                        0x1e0 (size before relaxing)
 .rodata.fit_image_print.str1.1
                0x0000000000443566       0xd0 common/built-in.o
                                         0xdd (size before relaxing)
 .rodata.fit_image_print_data.str1.1
                0x0000000000443636       0x6b common/built-in.o
                                         0x75 (size before relaxing)
 .rodata.fit_image_verify.str1.1
                0x00000000004436a1       0xfa common/built-in.o
 .rodata.fit_print_contents.str1.1
                0x000000000044379b       0x60 common/built-in.o
                                         0x64 (size before relaxing)
 .rodata.flush_dir_table.constprop.8.str1.1
                0x00000000004437fb       0x21 fs/built-in.o
 .rodata.fpga_add.str1.1
                0x000000000044381c       0x81 drivers/built-in.o
 .rodata.fpga_dev_info.str1.1
                0x000000000044389d       0x89 drivers/built-in.o
 .rodata.fpga_info.str1.1
                0x0000000000443926       0x20 drivers/built-in.o
 .rodata.fpga_loadbitstream.str1.1
                0x0000000000443946      0x1eb drivers/built-in.o
 .rodata.fpga_no_sup.str1.1
                0x0000000000443b31       0x2a drivers/built-in.o
                                         0x3e (size before relaxing)
 .rodata.fpga_validate.str1.1
                0x0000000000443b5b       0x12 drivers/built-in.o
 .rodata.fs_probe_unsupported.str1.1
                0x0000000000443b6d       0x24 fs/built-in.o
 .rodata.fs_read.str1.1
                0x0000000000443b91       0x24 fs/built-in.o
 .rodata.fs_write.str1.1
                0x0000000000443bb5       0x1f fs/built-in.o
 .rodata.genimg_get_arch_id.str1.1
                0x0000000000443bd4       0x54 common/built-in.o
                                          0x4 (size before relaxing)
 .rodata.genimg_get_arch_name.str1.1
                0x0000000000443bd4       0x15 common/built-in.o
 .rodata.genimg_get_comp_id.str1.1
                0x0000000000443be9       0x15 common/built-in.o
                                          0xc (size before relaxing)
 .rodata.genimg_get_comp_name.str1.1
                0x0000000000443be9       0x14 common/built-in.o
 .rodata.genimg_get_os_id.str1.1
                0x0000000000443bfd       0x14 common/built-in.o
                                          0x3 (size before relaxing)
 .rodata.genimg_get_os_name.str1.1
                0x0000000000443bfd        0xb common/built-in.o
 .rodata.genimg_get_type_id.str1.1
                0x0000000000443c08        0xb common/built-in.o
                                          0x6 (size before relaxing)
 .rodata.genimg_get_type_name.str1.1
                0x0000000000443c08        0xe common/built-in.o
 .rodata.genimg_print_size.str1.1
                0x0000000000443c16        0xc common/built-in.o
                                          0xe (size before relaxing)
 .rodata.genphy_update_link.str1.1
                0x0000000000443c22       0x54 drivers/net/phy/built-in.o
                                         0x56 (size before relaxing)
 .rodata.get_cluster.str1.1
                0x0000000000443c76       0x25 fs/built-in.o
 .rodata.get_fatent.str1.1
                0x0000000000443c9b       0x22 fs/built-in.o
 .rodata.get_hiSkyID.str1.1
                0x0000000000443cbd       0x21 cmd/built-in.o
 .rodata.get_local_var.str1.1
                0x0000000000443cde        0x3 common/built-in.o
 .rodata.get_phy_device_by_mask.str1.1
                0x0000000000443ce1       0x29 drivers/net/phy/built-in.o
 .rodata.get_vfatname.str1.1
                0x0000000000443d0a       0x13 fs/built-in.o
 .rodata.getenv_bootm_low.str1.1
                0x0000000000443d1d        0xa common/built-in.o
 .rodata.getenv_bootm_mapsize.str1.1
                0x0000000000443d27        0xe common/built-in.o
 .rodata.getenv_bootm_size.str1.1
                0x0000000000443d35        0xb common/built-in.o
 .rodata.getenv_f.str1.1
                0x0000000000443d40       0x30 cmd/built-in.o
 .rodata.gunzip.str1.1
                0x0000000000443d70       0x3e lib/built-in.o
 .rodata.hang.str1.1
                0x0000000000443dae       0x2a lib/built-in.o
 .rodata.hash_command.str1.1
                0x0000000000443dd8       0x58 common/built-in.o
                                         0x5f (size before relaxing)
 .rodata.hex_asc
                0x0000000000443e30       0x11 lib/built-in.o
 .rodata.hexport_r.str1.1
                0x0000000000443e41       0x30 lib/built-in.o
 .rodata.himport_r.str1.1
                0x0000000000443e71       0x99 lib/built-in.o
 .rodata.icmp_handler.str1.1
                0x0000000000443f0a       0x11 net/built-in.o
 .rodata.image_info.str1.1
                0x0000000000443f1b       0xeb cmd/built-in.o
                                         0xef (size before relaxing)
 .rodata.image_print_contents.str1.1
                0x0000000000444006       0xd0 common/built-in.o
                                         0xd4 (size before relaxing)
 .rodata.image_setup_libfdt.str1.1
                0x00000000004440d6       0x8f common/built-in.o
 .rodata.inflate.str1.1
                0x0000000000444165      0x158 lib/built-in.o
 .rodata.inflate_fast.str1.1
                0x00000000004442bd       0x50 lib/built-in.o
 .rodata.init_baud_rate.str1.1
                0x000000000044430d        0x9 common/built-in.o
 .rodata.init_mmc_device.str1.1
                0x0000000000444316       0x1a cmd/built-in.o
 .rodata.initcall_run_list.str1.1
                0x0000000000444330       0x31 lib/built-in.o
 .rodata.initr_env.str1.1
                0x0000000000444361       0x20 common/built-in.o
                                         0x29 (size before relaxing)
 .rodata.initr_ethaddr.str1.1
                0x0000000000444381        0x8 common/built-in.o
 .rodata.initr_mmc.str1.1
                0x0000000000444389        0x8 common/built-in.o
 .rodata.initr_net.str1.1
                0x0000000000444391        0x8 common/built-in.o
 .rodata.insert_var_value_sub.str1.1
                0x0000000000444399        0x6 common/built-in.o
 .rodata.ip_to_string.str1.1
                0x000000000044439f        0xc net/built-in.o
 .rodata.is_broadcast.str1.1
                0x00000000004443ab        0xf drivers/net/built-in.o
 .rodata.list_sort.str1.1
                0x00000000004443ab       0x34 lib/built-in.o
 .rodata.lists_bind_drivers.str1.1
                0x00000000004443df       0x1a drivers/built-in.o
 .rodata.lists_bind_fdt.str1.1
                0x00000000004443f9       0x3f drivers/built-in.o
                                         0x4a (size before relaxing)
 .rodata.lmb_alloc_base.str1.1
                0x0000000000444438       0x34 lib/built-in.o
 .rodata.load_data.str1.1
                0x000000000044446c       0x6a cmd/built-in.o
 .rodata.load_serial.str1.1
                0x00000000004444d6       0x65 cmd/built-in.o
 .rodata.load_serial_ymodem.str1.1
                0x000000000044453b       0x31 cmd/built-in.o
                                         0x35 (size before relaxing)
 .rodata.m88e1xxx_parse_status.str1.1
                0x000000000044456c       0x1e drivers/net/phy/built-in.o
                                         0x31 (size before relaxing)
 .rodata.main_loop.str1.1
                0x000000000044458a      0x234 common/built-in.o
                                        0x29e (size before relaxing)
 .rodata.match.str1.1
                0x00000000004447be       0x18 lib/built-in.o
 .rodata.match_entry.str1.1
                0x00000000004447d6       0x1b lib/built-in.o
 .rodata.match_string.str1.1
                0x00000000004447d6       0x2c lib/built-in.o
 .rodata.md5_check.str1.1
                0x0000000000444802       0xfc common/built-in.o
                                        0x119 (size before relaxing)
 .rodata.mdio_list_devices.str1.1
                0x00000000004448fe       0x17 common/built-in.o
                                         0x19 (size before relaxing)
 .rodata.mdio_phydev_for_ethname.str1.1
                0x0000000000444915       0x1c common/built-in.o
 .rodata.mdio_register.str1.1
                0x0000000000444931       0x2c common/built-in.o
 .rodata.mdio_register_seq.str1.1
                0x000000000044495d        0x6 common/built-in.o
 .rodata.miiphy_duplex.str1.1
                0x0000000000444963       0x5a common/built-in.o
                                         0x68 (size before relaxing)
 .rodata.miiphy_get_dev_by_name.str1.1
                0x00000000004449bd       0x13 common/built-in.o
 .rodata.miiphy_is_1000base_x.str1.1
                0x00000000004449d0       0x39 common/built-in.o
 .rodata.miiphy_listdev.str1.1
                0x0000000000444a09       0x2a common/built-in.o
 .rodata.miiphy_set_current_dev.str1.1
                0x0000000000444a33       0x14 common/built-in.o
 .rodata.miiphy_speed.str1.1
                0x0000000000444a47       0x5b common/built-in.o
 .rodata.mmc_berase.str1.1
                0x0000000000444aa2       0x6f drivers/mmc/built-in.o
 .rodata.mmc_bind.str1.1
                0x0000000000444b11        0x8 drivers/mmc/built-in.o
                                          0xc (size before relaxing)
 .rodata.mmc_bread.str1.1
                0x0000000000444b19       0x47 drivers/mmc/built-in.o
 .rodata.mmc_bwrite.str1.1
                0x0000000000444b60       0x12 drivers/mmc/built-in.o
                                         0x59 (size before relaxing)
 .rodata.mmc_hwpart_config.str1.1
                0x0000000000444b72      0x19f drivers/mmc/built-in.o
 .rodata.mmc_initialize.str1.1
                0x0000000000444d11       0x17 drivers/mmc/built-in.o
 .rodata.mmc_send_status.str1.1
                0x0000000000444d28       0x32 drivers/mmc/built-in.o
 .rodata.mmc_start_init.str1.1
                0x0000000000444d5a       0x3f drivers/mmc/built-in.o
 .rodata.mmc_startup.str1.1
                0x0000000000444d99       0x38 drivers/mmc/built-in.o
                                         0x3e (size before relaxing)
 .rodata.mod_mem.isra.0.str1.1
                0x0000000000444dd1       0x1d cmd/built-in.o
 .rodata.mtd_arg_off.str1.1
                0x0000000000444dee       0x38 drivers/mtd/built-in.o
 .rodata.mtd_arg_off_size.str1.1
                0x0000000000444e26       0x71 drivers/mtd/built-in.o
 .rodata.multipliers
                0x0000000000444e97       0x10 drivers/mmc/built-in.o
 .rodata.names.7951
                0x0000000000444ea7        0x6 lib/built-in.o
 .rodata.net_auto_load.str1.1
                0x0000000000444ead        0x9 net/built-in.o
 .rodata.net_bcast_ethaddr
                0x0000000000444eb6        0x6 net/built-in.o
                0x0000000000444eb6                net_bcast_ethaddr
 .rodata.net_loop.str1.1
                0x0000000000444ebc       0xe5 net/built-in.o
                                         0xf7 (size before relaxing)
 .rodata.net_process_received_packet.str1.1
                0x0000000000444fa1       0x1d net/built-in.o
 .rodata.net_start_again.str1.1
                0x0000000000444fbe        0xe net/built-in.o
                                         0x15 (size before relaxing)
 .rodata.netboot_common.str1.1
                0x0000000000444fcc       0x4e cmd/built-in.o
                                         0x57 (size before relaxing)
 .rodata.of_bus_default_count_cells.str1.1
                0x000000000044501a        0xc common/built-in.o
 .rodata.on_baudrate.str1.1
                0x0000000000445026       0x42 drivers/serial/built-in.o
                                         0x74 (size before relaxing)
 .rodata.on_callbacks.str1.1
                0x0000000000445068       0xf4 common/built-in.o
 .rodata.on_console.str1.1
                0x000000000044515c        0x7 common/built-in.o
                                         0x27 (size before relaxing)
 .rodata.on_flags.str1.1
                0x000000000044515c       0x50 common/built-in.o
 .rodata.parse_argv.str1.1
                0x00000000004451ac        0x6 cmd/built-in.o
                                          0xd (size before relaxing)
 .rodata.parse_stream_outer.str1.1
                0x00000000004451b2       0x4d common/built-in.o
 .rodata.parse_string_outer.str1.1
                0x00000000004451ff        0x2 common/built-in.o
 .rodata.part_get_info_extended.constprop.1.str1.1
                0x00000000004451ff        0x7 disk/built-in.o
 .rodata.part_print.str1.1
                0x00000000004451ff       0x87 disk/built-in.o
                                         0x8b (size before relaxing)
 .rodata.part_print_dos.str1.1
                0x0000000000445286       0x2a disk/built-in.o
 .rodata.part_set_generic_name.str1.1
                0x00000000004452b0        0xa disk/built-in.o
 .rodata.phy_connect.str1.1
                0x00000000004452ba       0x23 drivers/net/phy/built-in.o
 .rodata.phy_connect_dev.str1.1
                0x00000000004452dd       0x2f drivers/net/phy/built-in.o
 .rodata.phy_reset.str1.1
                0x000000000044530c       0x15 drivers/net/phy/built-in.o
 .rodata.ping_start.str1.1
                0x0000000000445321       0x11 net/built-in.o
 .rodata.print_buffer.str1.1
                0x0000000000445332        0x6 lib/built-in.o
                                         0x17 (size before relaxing)
 .rodata.print_data.str1.1
                0x0000000000445338       0x27 cmd/built-in.o
                                         0x32 (size before relaxing)
 .rodata.print_freq.str1.1
                0x000000000044535f       0x1b lib/built-in.o
 .rodata.print_mmc_devices.str1.1
                0x000000000044537a       0x12 drivers/mmc/built-in.o
                                         0x1c (size before relaxing)
 .rodata.print_num.str1.1
                0x000000000044538c       0x10 cmd/built-in.o
 .rodata.print_param.str1.1
                0x000000000044539c       0x6a cmd/built-in.o
                                          0x4 (size before relaxing)
 .rodata.print_partition_extended.str1.1
                0x000000000044539c       0x83 disk/built-in.o
                                         0x84 (size before relaxing)
 .rodata.print_size.str1.1
                0x000000000044541f       0x15 lib/built-in.o
 .rodata.quantifier.str1.1
                0x0000000000445434       0x17 lib/built-in.o
 .rodata.read_bootsectandvi.str1.1
                0x000000000044544b       0x1b fs/built-in.o
 .rodata.realloc.str1.1
                0x0000000000445466       0x25 common/built-in.o
 .rodata.refresh_settings_from_env.str1.1
                0x000000000044548b       0x18 drivers/net/built-in.o
 .rodata.regex_callback.str1.1
                0x00000000004454a3       0x20 common/built-in.o
 .rodata.run_list_real.str1.1
                0x00000000004454c3       0x45 common/built-in.o
                                         0x4b (size before relaxing)
 .rodata.saveenv.str1.1
                0x0000000000445508       0x4e common/built-in.o
                                         0x54 (size before relaxing)
 .rodata.sdhci_probe.str1.1
                0x0000000000445556       0x24 drivers/mmc/built-in.o
 .rodata.sdhci_reset.isra.2.str1.1
                0x000000000044557a       0x21 drivers/mmc/built-in.o
 .rodata.sdhci_send_command.str1.1
                0x000000000044559b       0x9b drivers/mmc/built-in.o
 .rodata.sdhci_set_clock.str1.1
                0x0000000000445636       0x4e drivers/mmc/built-in.o
 .rodata.sdhci_setup_cfg.str1.1
                0x0000000000445684       0x33 drivers/mmc/built-in.o
 .rodata.serial_init.str1.1
                0x00000000004456b7       0x23 drivers/serial/built-in.o
                                         0x2b (size before relaxing)
 .rodata.set_blobA_param.str1.1
                0x00000000004456da       0x2a cmd/built-in.o
 .rodata.set_cpu_clk_info.str1.1
                0x0000000000445704      0x159 arch/arm/mach-zynq/built-in.o
 .rodata.set_default_env.str1.1
                0x000000000044585d       0x5e common/built-in.o
                                         0x9b (size before relaxing)
 .rodata.set_hiSkyId.str1.1
                0x00000000004458bb       0x23 cmd/built-in.o
 .rodata.set_local_var.str1.1
                0x00000000004458de       0x59 common/built-in.o
 .rodata.set_macAddr.str1.1
                0x0000000000445937       0x8f cmd/built-in.o
                                         0x91 (size before relaxing)
 .rodata.set_param.str1.1
                0x00000000004459c6       0x7c cmd/built-in.o
 .rodata.set_quad_mode.isra.5.str1.1
                0x0000000000445a42       0x26 drivers/mtd/spi/built-in.o
 .rodata.set_rfSettings.str1.1
                0x0000000000445a68      0x10a cmd/built-in.o
                                        0x10c (size before relaxing)
 .rodata.set_wfSettings.str1.1
                0x0000000000445b72       0x25 cmd/built-in.o
 .rodata.set_working_fdt_addr.str1.1
                0x0000000000445b97        0x8 cmd/built-in.o
 .rodata.setenv.str1.1
                0x0000000000445b9f        0x7 cmd/built-in.o
 .rodata.setenv_hex.str1.1
                0x0000000000445ba6        0x4 cmd/built-in.o
 .rodata.sha1_padding
                0x0000000000445baa       0x40 lib/built-in.o
 .rodata.show_board_info.str1.1
                0x0000000000445bea       0x11 common/built-in.o
 .rodata.show_devices.str1.1
                0x0000000000445bfb       0x21 drivers/built-in.o
                                         0x2a (size before relaxing)
 .rodata.show_dram_config.str1.1
                0x0000000000445c1c        0x1 common/built-in.o
 .rodata.show_regs.str1.1
                0x0000000000445c1c       0xff arch/arm/lib/built-in.o
                                        0x129 (size before relaxing)
 .rodata.simple_bus_post_bind.str1.1
                0x0000000000445d1b        0x7 drivers/built-in.o
 .rodata.smbios_guid
                0x0000000000445d1b       0x10 lib/built-in.o
 .rodata.smbios_write_type0.str1.1
                0x0000000000445d2b       0x13 lib/built-in.o
                                         0x1a (size before relaxing)
 .rodata.smbios_write_type1.str1.1
                0x0000000000445d3e        0x8 lib/built-in.o
 .rodata.smbios_write_type2.str1.1
                0x0000000000445d3e       0x13 lib/built-in.o
                                          0x5 (size before relaxing)
 .rodata.smbios_write_type3.str1.1
                0x0000000000445d3e        0x7 lib/built-in.o
 .rodata.smbios_write_type4.str1.1
                0x0000000000445d45        0x8 lib/built-in.o
 .rodata.soc_clk_dump.str1.1
                0x0000000000445d45       0x1b arch/arm/mach-zynq/built-in.o
 .rodata.source.str1.1
                0x0000000000445d60      0x114 cmd/built-in.o
 .rodata.spi_flash_cmd_erase_ops.str1.1
                0x0000000000445e74       0x2f drivers/mtd/spi/built-in.o
 .rodata.spi_flash_cmd_write_ops.str1.1
                0x0000000000445ea3       0x30 drivers/mtd/spi/built-in.o
 .rodata.spi_flash_decode_fdt.str1.1
                0x0000000000445ed3        0xb drivers/mtd/spi/built-in.o
 .rodata.spi_flash_probe_bus_cs.str1.1
                0x0000000000445ede       0x1e drivers/mtd/spi/built-in.o
 .rodata.spi_flash_scan.str1.1
                0x0000000000445efc       0xe9 drivers/mtd/spi/built-in.o
                                         0xec (size before relaxing)
 .rodata.spi_flash_std_probe.str1.1
                0x0000000000445fe5       0x1c drivers/mtd/spi/built-in.o
 .rodata.spi_flash_write_common.str1.1
                0x0000000000446001        0xe drivers/mtd/spi/built-in.o
 .rodata.spi_get_bus_and_cs.str1.1
                0x000000000044600f       0x3d drivers/spi/built-in.o
 .rodata.spi_post_probe.str1.1
                0x000000000044604c       0x12 drivers/spi/built-in.o
 .rodata.spi_set_speed_mode.str1.1
                0x000000000044605e       0x35 drivers/spi/built-in.o
 .rodata.spi_slave_ofdata_to_platdata.str1.1
                0x0000000000446093       0xa0 drivers/spi/built-in.o
                                         0xa4 (size before relaxing)
 .rodata.stdio_add_devices.str1.1
                0x0000000000446133        0x7 common/built-in.o
 .rodata.stdio_print_current_devices.str1.1
                0x0000000000446133       0x70 common/built-in.o
                                         0x74 (size before relaxing)
 .rodata.store_char_in_data.str1.1
                0x00000000004461a3       0x1f lib/built-in.o
 .rodata.str1.1
                0x00000000004461c2       0xeb arch/arm/lib/built-in.o
 .rodata.str1.1
                0x00000000004462ad       0x3f board/xilinx/zynq/built-in.o
 .rodata.str1.1
                0x00000000004462ec     0x2b69 cmd/built-in.o
                                       0x2cd9 (size before relaxing)
 .rodata.str1.1
                0x0000000000448e55      0x722 common/built-in.o
                                        0x7a4 (size before relaxing)
 .rodata.str1.1
                0x0000000000449577       0x17 disk/built-in.o
                                         0x1a (size before relaxing)
 .rodata.str1.1
                0x000000000044958e       0x6a drivers/built-in.o
                                         0x85 (size before relaxing)
 .rodata.str1.1
                0x00000000004495f8       0x61 drivers/gpio/built-in.o
                                         0x6e (size before relaxing)
 .rodata.str1.1
                0x0000000000449659       0x1f drivers/mmc/built-in.o
                                         0x23 (size before relaxing)
 .rodata.str1.1
                0x0000000000449678      0x270 drivers/mtd/spi/built-in.o
                                        0x27e (size before relaxing)
 .rodata.str1.1
                0x00000000004498e8       0x77 drivers/net/built-in.o
                                         0x8b (size before relaxing)
 .rodata.str1.1
                0x000000000044995f       0xf4 drivers/net/phy/built-in.o
                                        0x14f (size before relaxing)
 .rodata.str1.1
                0x0000000000449a53       0x38 drivers/serial/built-in.o
                                         0x48 (size before relaxing)
 .rodata.str1.1
                0x0000000000449a8b       0x29 drivers/spi/built-in.o
                                         0x3d (size before relaxing)
 .rodata.str1.1
                0x0000000000449ab4       0x10 fs/built-in.o
 .rodata.str1.1
                0x0000000000449ac4      0x489 lib/built-in.o
                                        0x494 (size before relaxing)
 .rodata.str1.1
                0x0000000000449f4d        0xf net/built-in.o
                                         0x3e (size before relaxing)
 .rodata.str1.1
                0x0000000000449f5c       0xdc test/dm/built-in.o
                                         0xe2 (size before relaxing)
 .rodata.string.str1.1
                0x000000000044a038        0x7 lib/built-in.o
 .rodata.syntax_err.str1.1
                0x000000000044a03f        0xe common/built-in.o
 .rodata.tab_seq
                0x000000000044a04d        0x9 common/built-in.o
 .rodata.test_block_type.str1.1
                0x000000000044a056        0xa disk/built-in.o
 .rodata.tftp_complete.str1.1
                0x000000000044a060        0xb net/built-in.o
                                          0xe (size before relaxing)
 .rodata.tftp_handler.str1.1
                0x000000000044a06b       0x72 net/built-in.o
 .rodata.tftp_send.str1.1
                0x000000000044a0dd       0x36 net/built-in.o
                                         0x42 (size before relaxing)
 .rodata.tftp_start.str1.1
                0x000000000044a113      0x1a0 net/built-in.o
                                        0x1b9 (size before relaxing)
 .rodata.tftp_timeout_handler.str1.1
                0x000000000044a2b3       0x2d net/built-in.o
 .rodata.u_boot_hush_start.str1.1
                0x000000000044a2e0       0x12 common/built-in.o
 .rodata.uclass_resolve_seq.str1.1
                0x000000000044a2f2       0x27 drivers/built-in.o
 .rodata.version_string
                0x000000000044a319       0x2e cmd/built-in.o
                0x000000000044a319                version_string
 .rodata.write_smbios_table.str1.1
                0x000000000044a347        0xb lib/built-in.o
 .rodata.xilinx_dump.str1.1
                0x000000000044a352       0x1c drivers/built-in.o
 .rodata.xilinx_info.str1.1
                0x000000000044a36e      0x1cb drivers/built-in.o
 .rodata.xilinx_load.str1.1
                0x000000000044a539       0x3b drivers/built-in.o
 .rodata.xilinx_loadfs.str1.1
                0x000000000044a574       0x1e drivers/built-in.o
 .rodata.xilinx_validate.str1.1
                0x000000000044a592       0x67 drivers/built-in.o
 .rodata.xilinxphy_config.str1.1
                0x000000000044a5f9        0x9 drivers/net/phy/built-in.o
 .rodata.xmalloc.str1.1
                0x000000000044a602       0x1e common/built-in.o
 .rodata.xyzModem_error.str1.1
                0x000000000044a620        0xe common/built-in.o
 .rodata.xyzModem_stream_close.str1.1
                0x000000000044a62e       0x47 common/built-in.o
                                         0x4b (size before relaxing)
 .rodata.xyzModem_stream_open.str1.1
                0x000000000044a675        0x2 common/built-in.o
 .rodata.zunzip.str1.1
                0x000000000044a675       0x47 lib/built-in.o
 .rodata.zynq_align_dma_buffer.str1.1
                0x000000000044a6bc       0x53 drivers/built-in.o
 .rodata.zynq_ddrc_init.str1.1
                0x000000000044a70f       0x1b arch/arm/mach-zynq/built-in.o
 .rodata.zynq_dma_transfer.constprop.4.str1.1
                0x000000000044a72a       0x26 drivers/built-in.o
 .rodata.zynq_gem_init.str1.1
                0x000000000044a750        0xe drivers/net/built-in.o
 .rodata.zynq_gem_ofdata_to_platdata.str1.1
                0x000000000044a75e       0x5a drivers/net/built-in.o
                                         0x5e (size before relaxing)
 .rodata.zynq_gem_probe.str1.1
                0x000000000044a7b8       0x2a drivers/net/built-in.o
 .rodata.zynq_gem_recv.str1.1
                0x000000000044a7e2       0x4a drivers/net/built-in.o
 .rodata.zynq_gem_send.str1.1
                0x000000000044a82c       0x23 drivers/net/built-in.o
                                         0x2a (size before relaxing)
 .rodata.zynq_gpio_get_function.str1.1
                0x000000000044a84f       0x1a drivers/gpio/built-in.o
 .rodata.zynq_gpio_probe.str1.1
                0x000000000044a869       0x18 drivers/gpio/built-in.o
 .rodata.zynq_loadfs.str1.1
                0x000000000044a881       0x25 drivers/built-in.o
 .rodata.zynq_qspi_ofdata_to_platdata.str1.1
                0x000000000044a8a6       0x4d drivers/spi/built-in.o
                                         0x6f (size before relaxing)
 .rodata.zynq_slcr_gem_clk_setup.str1.1
                0x000000000044a8f3       0x18 arch/arm/mach-zynq/built-in.o
 .rodata.zynq_validate_bitstream.isra.3.str1.1
                0x000000000044a90b       0xa3 drivers/built-in.o

.hash           0x000000000044a9b0       0x18
 .hash          0x000000000044a9b0       0x18 arch/arm/cpu/armv7/start.o

.dtb.init.rodata
                0x000000000044a9d0     0x2550
 .dtb.init.rodata
                0x000000000044a9d0     0x2550 dts/built-in.o
                0x000000000044a9d0                __dtb_dt_begin
                0x000000000044cf16                __dtb_dt_end
                0x000000000044cf20                . = ALIGN (0x4)

.data           0x000000000044cf20     0x2248
 *(.data*)
 .data.slcr_lock
                0x000000000044cf20        0x4 arch/arm/mach-zynq/built-in.o
 .data.bootm_help_text
                0x000000000044cf24      0x4cf cmd/built-in.o
 *fill*         0x000000000044d3f3        0x1 
 .data.cmd_bootm_sub
                0x000000000044d3f4       0xd8 cmd/built-in.o
 .data.source_help_text
                0x000000000044d4cc       0xac cmd/built-in.o
 .data.bootefi_device_obj
                0x000000000044d578       0x2c cmd/built-in.o
 .data.bootefi_device_path
                0x000000000044d5a4       0x88 cmd/built-in.o
 .data.bootefi_help_text
                0x000000000044d62c       0xbf cmd/built-in.o
 *fill*         0x000000000044d6eb        0x1 
 .data.bootefi_image_path
                0x000000000044d6ec       0x88 cmd/built-in.o
 *fill*         0x000000000044d774        0x4 
 .data.loaded_image_info
                0x000000000044d778       0x60 cmd/built-in.o
 .data.loaded_image_info_obj
                0x000000000044d7d8       0x2c cmd/built-in.o
 .data.bootz_help_text
                0x000000000044d804      0x208 cmd/built-in.o
 .data.clk_help_text
                0x000000000044da0c       0x1f cmd/built-in.o
 *fill*         0x000000000044da2b        0x1 
 .data.cmd_clk_sub
                0x000000000044da2c       0x18 cmd/built-in.o
 .data.WiFiPasswdTag
                0x000000000044da44        0xc cmd/built-in.o
 .data.hiSkyIdTag
                0x000000000044da50        0xc cmd/built-in.o
 .data.macAddrTag
                0x000000000044da5c        0xc cmd/built-in.o
 .data.paramTable
                0x000000000044da68       0xa8 cmd/built-in.o
 .data.rfSettingsTag
                0x000000000044db10        0xc cmd/built-in.o
 .data.ssidTag  0x000000000044db1c        0xc cmd/built-in.o
 .data.wfSettingsTag
                0x000000000044db28        0xc cmd/built-in.o
 .data.fdt_help_text
                0x000000000044db34      0x60a cmd/built-in.o
 .data.root.7966
                0x000000000044e13e        0x2 cmd/built-in.o
 .data.tabs.8050
                0x000000000044e140       0x21 cmd/built-in.o
 *fill*         0x000000000044e161        0x3 
 .data.do_echo  0x000000000044e164        0x4 cmd/built-in.o
 .data.dp_last_length
                0x000000000044e168        0x4 cmd/built-in.o
 .data.cmd_mmc  0x000000000044e16c       0xf0 cmd/built-in.o
 .data.curr_device
                0x000000000044e25c        0x4 cmd/built-in.o
 .data.imgextract_help_text
                0x000000000044e260       0xb2 cmd/built-in.o
 *fill*         0x000000000044e312        0x2 
 .data.cmd_env_sub
                0x000000000044e314       0xf0 cmd/built-in.o
 .data.env_help_text
                0x000000000044e404      0x24f cmd/built-in.o
 *fill*         0x000000000044e653        0x1 
 .data.env_id   0x000000000044e654        0x4 cmd/built-in.o
 .data.hash_algo
                0x000000000044e658       0x54 common/built-in.o
 .data.reserved_list
                0x000000000044e6ac       0x84 common/built-in.o
 .data.init_sequence_f
                0x000000000044e730       0x98 common/built-in.o
 .data.init_sequence_r
                0x000000000044e7c8       0x70 common/built-in.o
                0x000000000044e7c8                init_sequence_r
 .data.first_call
                0x000000000044e838        0x8 common/built-in.o
 .data.env_name_spec
                0x000000000044e840        0x4 common/built-in.o
                0x000000000044e840                env_name_spec
 .data.of_busses
                0x000000000044e844       0x18 common/built-in.o
 .data.env_htab
                0x000000000044e85c       0x10 common/built-in.o
                0x000000000044e85c                env_htab
 .data.av_      0x000000000044e86c      0x408 common/built-in.o
 .data.sbrk_base
                0x000000000044ec74        0x4 common/built-in.o
 .data.trim_threshold
                0x000000000044ec78        0x4 common/built-in.o
 .data.stdio_names
                0x000000000044ec7c        0xc common/built-in.o
                0x000000000044ec7c                stdio_names
 .data.hist_cur
                0x000000000044ec88        0x4 common/built-in.o
 .data.next_desc
                0x000000000044ec8c        0x4 drivers/built-in.o
 .data.zynq_op  0x000000000044ec90       0x14 drivers/built-in.o
                0x000000000044ec90                zynq_op
 .data.cmd_timeout.8525
                0x000000000044eca4        0x4 drivers/mmc/built-in.o
 .data.genphy_driver
                0x000000000044eca8       0x34 drivers/net/phy/built-in.o
 .data.phy_drivers
                0x000000000044ecdc        0x8 drivers/net/phy/built-in.o
 .data.M88E1011S_driver
                0x000000000044ece4       0x34 drivers/net/phy/built-in.o
 .data.M88E1111S_driver
                0x000000000044ed18       0x34 drivers/net/phy/built-in.o
 .data.M88E1118R_driver
                0x000000000044ed4c       0x34 drivers/net/phy/built-in.o
 .data.M88E1118_driver
                0x000000000044ed80       0x34 drivers/net/phy/built-in.o
 .data.M88E1121R_driver
                0x000000000044edb4       0x34 drivers/net/phy/built-in.o
 .data.M88E1145_driver
                0x000000000044ede8       0x34 drivers/net/phy/built-in.o
 .data.M88E1149S_driver
                0x000000000044ee1c       0x34 drivers/net/phy/built-in.o
 .data.M88E1310_driver
                0x000000000044ee50       0x34 drivers/net/phy/built-in.o
 .data.M88E1510_driver
                0x000000000044ee84       0x34 drivers/net/phy/built-in.o
 .data.M88E1518_driver
                0x000000000044eeb8       0x34 drivers/net/phy/built-in.o
 .data.DP83630_driver
                0x000000000044eeec       0x34 drivers/net/phy/built-in.o
 .data.DP83848_driver
                0x000000000044ef20       0x34 drivers/net/phy/built-in.o
 .data.DP83865_driver
                0x000000000044ef54       0x34 drivers/net/phy/built-in.o
 .data.xilinxphy_driver
                0x000000000044ef88       0x34 drivers/net/phy/built-in.o
 .data.fstypes  0x000000000044efbc       0x58 fs/built-in.o
 *fill*         0x000000000044f014        0x4 
 .data.efi_event
                0x000000000044f018       0x28 lib/built-in.o
 .data.efi_is_direct_boot
                0x000000000044f040        0x1 lib/built-in.o
 *fill*         0x000000000044f041        0x3 
 .data.efi_obj_list
                0x000000000044f044        0x8 lib/built-in.o
                0x000000000044f044                efi_obj_list
 .data.loaded_image_info_obj.8935
                0x000000000044f04c       0x2c lib/built-in.o
 .data.efi_runtime_mmio
                0x000000000044f078        0x8 lib/built-in.o
                0x000000000044f078                efi_runtime_mmio
 .data.lastoff.9930
                0x000000000044f080        0x4 lib/built-in.o
 .data.efi_con_mode
                0x000000000044f084       0x18 lib/built-in.o
 .data.efi_cout_modes
                0x000000000044f09c       0x24 lib/built-in.o
 .data.efi_mem  0x000000000044f0c0        0x8 lib/built-in.o
                0x000000000044f0c0                efi_mem
 .data.sha256_padding
                0x000000000044f0c8       0x40 lib/built-in.o
 .data.first_call.8121
                0x000000000044f108        0x4 net/built-in.o
 .data.net_native_vlan
                0x000000000044f10c        0x2 net/built-in.o
                0x000000000044f10c                net_native_vlan
 .data.net_our_vlan
                0x000000000044f10e        0x2 net/built-in.o
                0x000000000044f10e                net_our_vlan
 .data.tftp_block_size
                0x000000000044f110        0x2 net/built-in.o
 .data.tftp_block_size_option
                0x000000000044f112        0x2 net/built-in.o
 .data.tftp_timeout_count_max
                0x000000000044f114        0x4 net/built-in.o
                0x000000000044f114                tftp_timeout_count_max
 .data.timeout_count_max
                0x000000000044f118        0x4 net/built-in.o
 .data.timeout_ms
                0x000000000044f11c        0x4 net/built-in.o
 .data.test_commands
                0x000000000044f120       0x48 test/dm/built-in.o

.got            0x000000000044f168        0x0
 .got           0x000000000044f168        0x0 arch/arm/cpu/armv7/start.o

.got.plt        0x000000000044f168        0xc
 .got.plt       0x000000000044f168        0xc arch/arm/cpu/armv7/start.o
                0x000000000044f168                _GLOBAL_OFFSET_TABLE_

.igot.plt       0x000000000044f174        0x0
 .igot.plt      0x000000000044f174        0x0 arch/arm/cpu/armv7/start.o

.__efi_runtime_rel_start
                0x000000000044f174        0x0
 .__efi_runtime_rel_start
                0x000000000044f174        0x0 arch/arm/lib/built-in.o

.__efi_runtime_rel_stop
                0x000000000044f174        0x0
 .__efi_runtime_rel_stop
                0x000000000044f174        0x0 arch/arm/lib/built-in.o

.__efi_runtime_start
                0x000000000044f174        0x0
 .__efi_runtime_start
                0x000000000044f174        0x0 arch/arm/lib/built-in.o

.__efi_runtime_stop
                0x000000000044f174        0x0
 .__efi_runtime_stop
                0x000000000044f174        0x0 arch/arm/lib/built-in.o

efi_runtime_data
                0x000000000044f178       0xd8
                [!provide]                        PROVIDE (__start_efi_runtime_data, .)
 efi_runtime_data
                0x000000000044f178       0xd8 lib/built-in.o
                0x000000000044f178                systab
                0x000000000044f200                efi_runtime_services
                [!provide]                        PROVIDE (__stop_efi_runtime_data, .)
                0x000000000044f250                . = ALIGN (0x4)
                0x000000000044f250                . = .
                0x000000000044f250                . = ALIGN (0x4)

.u_boot_list    0x000000000044f250      0xcb4
 *(SORT(.u_boot_list*))
 .u_boot_list_2_cmd_1
                0x000000000044f250        0x0 cmd/built-in.o
 .u_boot_list_2_cmd_1
                0x000000000044f250        0x0 common/built-in.o
 .u_boot_list_2_cmd_2_base
                0x000000000044f250       0x18 cmd/built-in.o
                0x000000000044f250                _u_boot_list_2_cmd_2_base
 .u_boot_list_2_cmd_2_bdinfo
                0x000000000044f268       0x18 cmd/built-in.o
                0x000000000044f268                _u_boot_list_2_cmd_2_bdinfo
 .u_boot_list_2_cmd_2_boot
                0x000000000044f280       0x18 cmd/built-in.o
                0x000000000044f280                _u_boot_list_2_cmd_2_boot
 .u_boot_list_2_cmd_2_bootd
                0x000000000044f298       0x18 cmd/built-in.o
                0x000000000044f298                _u_boot_list_2_cmd_2_bootd
 .u_boot_list_2_cmd_2_bootefi
                0x000000000044f2b0       0x18 cmd/built-in.o
                0x000000000044f2b0                _u_boot_list_2_cmd_2_bootefi
 .u_boot_list_2_cmd_2_bootm
                0x000000000044f2c8       0x18 cmd/built-in.o
                0x000000000044f2c8                _u_boot_list_2_cmd_2_bootm
 .u_boot_list_2_cmd_2_bootp
                0x000000000044f2e0       0x18 cmd/built-in.o
                0x000000000044f2e0                _u_boot_list_2_cmd_2_bootp
 .u_boot_list_2_cmd_2_bootz
                0x000000000044f2f8       0x18 cmd/built-in.o
                0x000000000044f2f8                _u_boot_list_2_cmd_2_bootz
 .u_boot_list_2_cmd_2_clk
                0x000000000044f310       0x18 cmd/built-in.o
                0x000000000044f310                _u_boot_list_2_cmd_2_clk
 .u_boot_list_2_cmd_2_cmp
                0x000000000044f328       0x18 cmd/built-in.o
                0x000000000044f328                _u_boot_list_2_cmd_2_cmp
 .u_boot_list_2_cmd_2_coninfo
                0x000000000044f340       0x18 cmd/built-in.o
                0x000000000044f340                _u_boot_list_2_cmd_2_coninfo
 .u_boot_list_2_cmd_2_cp
                0x000000000044f358       0x18 cmd/built-in.o
                0x000000000044f358                _u_boot_list_2_cmd_2_cp
 .u_boot_list_2_cmd_2_crc32
                0x000000000044f370       0x18 cmd/built-in.o
                0x000000000044f370                _u_boot_list_2_cmd_2_crc32
 .u_boot_list_2_cmd_2_dcache
                0x000000000044f388       0x18 cmd/built-in.o
                0x000000000044f388                _u_boot_list_2_cmd_2_dcache
 .u_boot_list_2_cmd_2_dm
                0x000000000044f3a0       0x18 test/dm/built-in.o
                0x000000000044f3a0                _u_boot_list_2_cmd_2_dm
 .u_boot_list_2_cmd_2_echo
                0x000000000044f3b8       0x18 cmd/built-in.o
                0x000000000044f3b8                _u_boot_list_2_cmd_2_echo
 .u_boot_list_2_cmd_2_editenv
                0x000000000044f3d0       0x18 cmd/built-in.o
                0x000000000044f3d0                _u_boot_list_2_cmd_2_editenv
 .u_boot_list_2_cmd_2_env
                0x000000000044f3e8       0x18 cmd/built-in.o
                0x000000000044f3e8                _u_boot_list_2_cmd_2_env
 .u_boot_list_2_cmd_2_exit
                0x000000000044f400       0x18 cmd/built-in.o
                0x000000000044f400                _u_boot_list_2_cmd_2_exit
 .u_boot_list_2_cmd_2_false
                0x000000000044f418       0x18 cmd/built-in.o
                0x000000000044f418                _u_boot_list_2_cmd_2_false
 .u_boot_list_2_cmd_2_fatinfo
                0x000000000044f430       0x18 cmd/built-in.o
                0x000000000044f430                _u_boot_list_2_cmd_2_fatinfo
 .u_boot_list_2_cmd_2_fatload
                0x000000000044f448       0x18 cmd/built-in.o
                0x000000000044f448                _u_boot_list_2_cmd_2_fatload
 .u_boot_list_2_cmd_2_fatls
                0x000000000044f460       0x18 cmd/built-in.o
                0x000000000044f460                _u_boot_list_2_cmd_2_fatls
 .u_boot_list_2_cmd_2_fatsize
                0x000000000044f478       0x18 cmd/built-in.o
                0x000000000044f478                _u_boot_list_2_cmd_2_fatsize
 .u_boot_list_2_cmd_2_fatwrite
                0x000000000044f490       0x18 cmd/built-in.o
                0x000000000044f490                _u_boot_list_2_cmd_2_fatwrite
 .u_boot_list_2_cmd_2_fdt
                0x000000000044f4a8       0x18 cmd/built-in.o
                0x000000000044f4a8                _u_boot_list_2_cmd_2_fdt
 .u_boot_list_2_cmd_2_fpga
                0x000000000044f4c0       0x18 cmd/built-in.o
                0x000000000044f4c0                _u_boot_list_2_cmd_2_fpga
 .u_boot_list_2_cmd_2_fstype
                0x000000000044f4d8       0x18 cmd/built-in.o
                0x000000000044f4d8                _u_boot_list_2_cmd_2_fstype
 .u_boot_list_2_cmd_2_help
                0x000000000044f4f0       0x18 cmd/built-in.o
                0x000000000044f4f0                _u_boot_list_2_cmd_2_help
 .u_boot_list_2_cmd_2_hsconf
                0x000000000044f508       0x18 cmd/built-in.o
                0x000000000044f508                _u_boot_list_2_cmd_2_hsconf
 .u_boot_list_2_cmd_2_icache
                0x000000000044f520       0x18 cmd/built-in.o
                0x000000000044f520                _u_boot_list_2_cmd_2_icache
 .u_boot_list_2_cmd_2_iminfo
                0x000000000044f538       0x18 cmd/built-in.o
                0x000000000044f538                _u_boot_list_2_cmd_2_iminfo
 .u_boot_list_2_cmd_2_imxtract
                0x000000000044f550       0x18 cmd/built-in.o
                0x000000000044f550                _u_boot_list_2_cmd_2_imxtract
 .u_boot_list_2_cmd_2_itest
                0x000000000044f568       0x18 cmd/built-in.o
                0x000000000044f568                _u_boot_list_2_cmd_2_itest
 .u_boot_list_2_cmd_2_load
                0x000000000044f580       0x18 cmd/built-in.o
                0x000000000044f580                _u_boot_list_2_cmd_2_load
 .u_boot_list_2_cmd_2_loadb
                0x000000000044f598       0x18 cmd/built-in.o
                0x000000000044f598                _u_boot_list_2_cmd_2_loadb
 .u_boot_list_2_cmd_2_loads
                0x000000000044f5b0       0x18 cmd/built-in.o
                0x000000000044f5b0                _u_boot_list_2_cmd_2_loads
 .u_boot_list_2_cmd_2_loadx
                0x000000000044f5c8       0x18 cmd/built-in.o
                0x000000000044f5c8                _u_boot_list_2_cmd_2_loadx
 .u_boot_list_2_cmd_2_loady
                0x000000000044f5e0       0x18 cmd/built-in.o
                0x000000000044f5e0                _u_boot_list_2_cmd_2_loady
 .u_boot_list_2_cmd_2_loop
                0x000000000044f5f8       0x18 cmd/built-in.o
                0x000000000044f5f8                _u_boot_list_2_cmd_2_loop
 .u_boot_list_2_cmd_2_ls
                0x000000000044f610       0x18 cmd/built-in.o
                0x000000000044f610                _u_boot_list_2_cmd_2_ls
 .u_boot_list_2_cmd_2_md
                0x000000000044f628       0x18 cmd/built-in.o
                0x000000000044f628                _u_boot_list_2_cmd_2_md
 .u_boot_list_2_cmd_2_mdio
                0x000000000044f640       0x18 cmd/built-in.o
                0x000000000044f640                _u_boot_list_2_cmd_2_mdio
 .u_boot_list_2_cmd_2_mii
                0x000000000044f658       0x18 cmd/built-in.o
                0x000000000044f658                _u_boot_list_2_cmd_2_mii
 .u_boot_list_2_cmd_2_mm
                0x000000000044f670       0x18 cmd/built-in.o
                0x000000000044f670                _u_boot_list_2_cmd_2_mm
 .u_boot_list_2_cmd_2_mmc
                0x000000000044f688       0x18 cmd/built-in.o
                0x000000000044f688                _u_boot_list_2_cmd_2_mmc
 .u_boot_list_2_cmd_2_mmcinfo
                0x000000000044f6a0       0x18 cmd/built-in.o
                0x000000000044f6a0                _u_boot_list_2_cmd_2_mmcinfo
 .u_boot_list_2_cmd_2_mw
                0x000000000044f6b8       0x18 cmd/built-in.o
                0x000000000044f6b8                _u_boot_list_2_cmd_2_mw
 .u_boot_list_2_cmd_2_nm
                0x000000000044f6d0       0x18 cmd/built-in.o
                0x000000000044f6d0                _u_boot_list_2_cmd_2_nm
 .u_boot_list_2_cmd_2_ping
                0x000000000044f6e8       0x18 cmd/built-in.o
                0x000000000044f6e8                _u_boot_list_2_cmd_2_ping
 .u_boot_list_2_cmd_2_printenv
                0x000000000044f700       0x18 cmd/built-in.o
                0x000000000044f700                _u_boot_list_2_cmd_2_printenv
 .u_boot_list_2_cmd_2_question_mark
                0x000000000044f718       0x18 cmd/built-in.o
                0x000000000044f718                _u_boot_list_2_cmd_2_question_mark
 .u_boot_list_2_cmd_2_reset
                0x000000000044f730       0x18 cmd/built-in.o
                0x000000000044f730                _u_boot_list_2_cmd_2_reset
 .u_boot_list_2_cmd_2_run
                0x000000000044f748       0x18 cmd/built-in.o
                0x000000000044f748                _u_boot_list_2_cmd_2_run
 .u_boot_list_2_cmd_2_save
                0x000000000044f760       0x18 cmd/built-in.o
                0x000000000044f760                _u_boot_list_2_cmd_2_save
 .u_boot_list_2_cmd_2_saveenv
                0x000000000044f778       0x18 cmd/built-in.o
                0x000000000044f778                _u_boot_list_2_cmd_2_saveenv
 .u_boot_list_2_cmd_2_saves
                0x000000000044f790       0x18 cmd/built-in.o
                0x000000000044f790                _u_boot_list_2_cmd_2_saves
 .u_boot_list_2_cmd_2_setenv
                0x000000000044f7a8       0x18 cmd/built-in.o
                0x000000000044f7a8                _u_boot_list_2_cmd_2_setenv
 .u_boot_list_2_cmd_2_sf
                0x000000000044f7c0       0x18 cmd/built-in.o
                0x000000000044f7c0                _u_boot_list_2_cmd_2_sf
 .u_boot_list_2_cmd_2_showvar
                0x000000000044f7d8       0x18 common/built-in.o
                0x000000000044f7d8                _u_boot_list_2_cmd_2_showvar
 .u_boot_list_2_cmd_2_size
                0x000000000044f7f0       0x18 cmd/built-in.o
                0x000000000044f7f0                _u_boot_list_2_cmd_2_size
 .u_boot_list_2_cmd_2_sleep
                0x000000000044f808       0x18 cmd/built-in.o
                0x000000000044f808                _u_boot_list_2_cmd_2_sleep
 .u_boot_list_2_cmd_2_source
                0x000000000044f820       0x18 cmd/built-in.o
                0x000000000044f820                _u_boot_list_2_cmd_2_source
 .u_boot_list_2_cmd_2_sspi
                0x000000000044f838       0x18 cmd/built-in.o
                0x000000000044f838                _u_boot_list_2_cmd_2_sspi
 .u_boot_list_2_cmd_2_test
                0x000000000044f850       0x18 cmd/built-in.o
                0x000000000044f850                _u_boot_list_2_cmd_2_test
 .u_boot_list_2_cmd_2_tftpboot
                0x000000000044f868       0x18 cmd/built-in.o
                0x000000000044f868                _u_boot_list_2_cmd_2_tftpboot
 .u_boot_list_2_cmd_2_tftpput
                0x000000000044f880       0x18 cmd/built-in.o
                0x000000000044f880                _u_boot_list_2_cmd_2_tftpput
 .u_boot_list_2_cmd_2_true
                0x000000000044f898       0x18 cmd/built-in.o
                0x000000000044f898                _u_boot_list_2_cmd_2_true
 .u_boot_list_2_cmd_2_version
                0x000000000044f8b0       0x18 cmd/built-in.o
                0x000000000044f8b0                _u_boot_list_2_cmd_2_version
 .u_boot_list_2_cmd_3
                0x000000000044f8c8        0x0 cmd/built-in.o
 .u_boot_list_2_cmd_3
                0x000000000044f8c8        0x0 common/built-in.o
 .u_boot_list_2_driver_1
                0x000000000044f8c8        0x0 drivers/built-in.o
 .u_boot_list_2_driver_2_arasan_sdhci_drv
                0x000000000044f8c8       0x44 drivers/mmc/built-in.o
                0x000000000044f8c8                _u_boot_list_2_driver_2_arasan_sdhci_drv
 .u_boot_list_2_driver_2_gpio_zynq
                0x000000000044f90c       0x44 drivers/gpio/built-in.o
                0x000000000044f90c                _u_boot_list_2_driver_2_gpio_zynq
 .u_boot_list_2_driver_2_mmc
                0x000000000044f950       0x44 drivers/mmc/built-in.o
                0x000000000044f950                _u_boot_list_2_driver_2_mmc
 .u_boot_list_2_driver_2_mmc_blk
                0x000000000044f994       0x44 drivers/mmc/built-in.o
                0x000000000044f994                _u_boot_list_2_driver_2_mmc_blk
 .u_boot_list_2_driver_2_root_driver
                0x000000000044f9d8       0x44 drivers/built-in.o
                0x000000000044f9d8                _u_boot_list_2_driver_2_root_driver
 .u_boot_list_2_driver_2_serial_zynq
                0x000000000044fa1c       0x44 drivers/serial/built-in.o
                0x000000000044fa1c                _u_boot_list_2_driver_2_serial_zynq
 .u_boot_list_2_driver_2_simple_bus_drv
                0x000000000044fa60       0x44 drivers/built-in.o
                0x000000000044fa60                _u_boot_list_2_driver_2_simple_bus_drv
 .u_boot_list_2_driver_2_spi_flash_std
                0x000000000044faa4       0x44 drivers/mtd/spi/built-in.o
                0x000000000044faa4                _u_boot_list_2_driver_2_spi_flash_std
 .u_boot_list_2_driver_2_spi_generic_drv
                0x000000000044fae8       0x44 drivers/spi/built-in.o
                0x000000000044fae8                _u_boot_list_2_driver_2_spi_generic_drv
 .u_boot_list_2_driver_2_zynq_gem
                0x000000000044fb2c       0x44 drivers/net/built-in.o
                0x000000000044fb2c                _u_boot_list_2_driver_2_zynq_gem
 .u_boot_list_2_driver_2_zynq_qspi
                0x000000000044fb70       0x44 drivers/spi/built-in.o
                0x000000000044fb70                _u_boot_list_2_driver_2_zynq_qspi
 .u_boot_list_2_driver_3
                0x000000000044fbb4        0x0 drivers/built-in.o
 .u_boot_list_2_driver_info_1
                0x000000000044fbb4        0x0 drivers/built-in.o
 .u_boot_list_2_driver_info_3
                0x000000000044fbb4        0x0 drivers/built-in.o
 .u_boot_list_2_env_clbk_1
                0x000000000044fbb4        0x0 common/built-in.o
 .u_boot_list_2_env_clbk_2_baudrate
                0x000000000044fbb4        0x8 drivers/serial/built-in.o
                0x000000000044fbb4                _u_boot_list_2_env_clbk_2_baudrate
 .u_boot_list_2_env_clbk_2_bootfile
                0x000000000044fbbc        0x8 net/built-in.o
                0x000000000044fbbc                _u_boot_list_2_env_clbk_2_bootfile
 .u_boot_list_2_env_clbk_2_callbacks
                0x000000000044fbc4        0x8 common/built-in.o
                0x000000000044fbc4                _u_boot_list_2_env_clbk_2_callbacks
 .u_boot_list_2_env_clbk_2_console
                0x000000000044fbcc        0x8 common/built-in.o
                0x000000000044fbcc                _u_boot_list_2_env_clbk_2_console
 .u_boot_list_2_env_clbk_2_ethaddr
                0x000000000044fbd4        0x8 net/built-in.o
                0x000000000044fbd4                _u_boot_list_2_env_clbk_2_ethaddr
 .u_boot_list_2_env_clbk_2_flags
                0x000000000044fbdc        0x8 common/built-in.o
                0x000000000044fbdc                _u_boot_list_2_env_clbk_2_flags
 .u_boot_list_2_env_clbk_2_gatewayip
                0x000000000044fbe4        0x8 net/built-in.o
                0x000000000044fbe4                _u_boot_list_2_env_clbk_2_gatewayip
 .u_boot_list_2_env_clbk_2_ipaddr
                0x000000000044fbec        0x8 net/built-in.o
                0x000000000044fbec                _u_boot_list_2_env_clbk_2_ipaddr
 .u_boot_list_2_env_clbk_2_loadaddr
                0x000000000044fbf4        0x8 common/built-in.o
                0x000000000044fbf4                _u_boot_list_2_env_clbk_2_loadaddr
 .u_boot_list_2_env_clbk_2_netmask
                0x000000000044fbfc        0x8 net/built-in.o
                0x000000000044fbfc                _u_boot_list_2_env_clbk_2_netmask
 .u_boot_list_2_env_clbk_2_nvlan
                0x000000000044fc04        0x8 net/built-in.o
                0x000000000044fc04                _u_boot_list_2_env_clbk_2_nvlan
 .u_boot_list_2_env_clbk_2_serverip
                0x000000000044fc0c        0x8 net/built-in.o
                0x000000000044fc0c                _u_boot_list_2_env_clbk_2_serverip
 .u_boot_list_2_env_clbk_2_vlan
                0x000000000044fc14        0x8 net/built-in.o
                0x000000000044fc14                _u_boot_list_2_env_clbk_2_vlan
 .u_boot_list_2_env_clbk_3
                0x000000000044fc1c        0x0 common/built-in.o
 .u_boot_list_2_fit_loadable_1
                0x000000000044fc1c        0x0 common/built-in.o
 .u_boot_list_2_fit_loadable_3
                0x000000000044fc1c        0x0 common/built-in.o
 .u_boot_list_2_part_driver_1
                0x000000000044fc1c        0x0 disk/built-in.o
 .u_boot_list_2_part_driver_2_dos
                0x000000000044fc1c       0x18 disk/built-in.o
                0x000000000044fc1c                _u_boot_list_2_part_driver_2_dos
 .u_boot_list_2_part_driver_3
                0x000000000044fc34        0x0 disk/built-in.o
 .u_boot_list_2_uclass_1
                0x000000000044fc34        0x0 drivers/built-in.o
 .u_boot_list_2_uclass_2_blk
                0x000000000044fc34       0x48 drivers/built-in.o
                0x000000000044fc34                _u_boot_list_2_uclass_2_blk
 .u_boot_list_2_uclass_2_eth
                0x000000000044fc7c       0x48 net/built-in.o
                0x000000000044fc7c                _u_boot_list_2_uclass_2_eth
 .u_boot_list_2_uclass_2_gpio
                0x000000000044fcc4       0x48 drivers/gpio/built-in.o
                0x000000000044fcc4                _u_boot_list_2_uclass_2_gpio
 .u_boot_list_2_uclass_2_mmc
                0x000000000044fd0c       0x48 drivers/mmc/built-in.o
                0x000000000044fd0c                _u_boot_list_2_uclass_2_mmc
 .u_boot_list_2_uclass_2_root
                0x000000000044fd54       0x48 drivers/built-in.o
                0x000000000044fd54                _u_boot_list_2_uclass_2_root
 .u_boot_list_2_uclass_2_serial
                0x000000000044fd9c       0x48 drivers/serial/built-in.o
                0x000000000044fd9c                _u_boot_list_2_uclass_2_serial
 .u_boot_list_2_uclass_2_simple_bus
                0x000000000044fde4       0x48 drivers/built-in.o
                0x000000000044fde4                _u_boot_list_2_uclass_2_simple_bus
 .u_boot_list_2_uclass_2_spi
                0x000000000044fe2c       0x48 drivers/spi/built-in.o
                0x000000000044fe2c                _u_boot_list_2_uclass_2_spi
 .u_boot_list_2_uclass_2_spi_flash
                0x000000000044fe74       0x48 drivers/mtd/spi/built-in.o
                0x000000000044fe74                _u_boot_list_2_uclass_2_spi_flash
 .u_boot_list_2_uclass_2_spi_generic
                0x000000000044febc       0x48 drivers/spi/built-in.o
                0x000000000044febc                _u_boot_list_2_uclass_2_spi_generic
 .u_boot_list_2_uclass_3
                0x000000000044ff04        0x0 drivers/built-in.o
                0x000000000044ff04                . = ALIGN (0x4)

.image_copy_end
                0x000000000044ff04        0x0
 *(.__image_copy_end)
 .__image_copy_end
                0x000000000044ff04        0x0 arch/arm/lib/built-in.o

.rel_dyn_start  0x000000000044ff04        0x0
 *(.__rel_dyn_start)
 .__rel_dyn_start
                0x000000000044ff04        0x0 arch/arm/lib/built-in.o

.rel.dyn        0x000000000044ff04     0x9290
 *(.rel*)
 .rel.got       0x000000000044ff04        0x0 arch/arm/cpu/armv7/start.o
 .rel.plt       0x000000000044ff04        0x0 arch/arm/cpu/armv7/start.o
 .rel.iplt      0x000000000044ff04        0x0 arch/arm/cpu/armv7/start.o
 .rel.text      0x000000000044ff04       0x20 arch/arm/cpu/armv7/start.o
 .rel.vectors   0x000000000044ff24       0x38 arch/arm/cpu/armv7/start.o
 .rel.text.relocate_vectors
                0x000000000044ff5c       0x20 arch/arm/cpu/armv7/start.o
 .rel.text.boot_prep_linux
                0x000000000044ff7c       0x18 arch/arm/cpu/armv7/start.o
 .rel.text.boot_jump_linux
                0x000000000044ff94       0x28 arch/arm/cpu/armv7/start.o
 .rel.text.boot_prep_vxworks
                0x000000000044ffbc       0x10 arch/arm/cpu/armv7/start.o
 .rel.text.bootz_setup
                0x000000000044ffcc       0x10 arch/arm/cpu/armv7/start.o
 .rel.text.interrupt_init
                0x000000000044ffdc        0x8 arch/arm/cpu/armv7/start.o
 .rel.text.bad_mode
                0x000000000044ffe4        0x8 arch/arm/cpu/armv7/start.o
 .rel.text.show_regs
                0x000000000044ffec       0x60 arch/arm/cpu/armv7/start.o
 .rel.text.do_undefined_instruction
                0x000000000045004c        0x8 arch/arm/cpu/armv7/start.o
 .rel.text.do_software_interrupt
                0x0000000000450054        0x8 arch/arm/cpu/armv7/start.o
 .rel.text.do_prefetch_abort
                0x000000000045005c        0x8 arch/arm/cpu/armv7/start.o
 .rel.text.do_data_abort
                0x0000000000450064        0x8 arch/arm/cpu/armv7/start.o
 .rel.text.do_not_used
                0x000000000045006c        0x8 arch/arm/cpu/armv7/start.o
 .rel.text.do_fiq
                0x0000000000450074        0x8 arch/arm/cpu/armv7/start.o
 .rel.text.do_irq
                0x000000000045007c        0x8 arch/arm/cpu/armv7/start.o
 .rel.text.do_reset
                0x0000000000450084        0x8 arch/arm/cpu/armv7/start.o
 .rel.text.enable_caches
                0x000000000045008c        0x0 arch/arm/cpu/armv7/start.o
 .rel.text.check_cache_range
                0x000000000045008c        0x8 arch/arm/cpu/armv7/start.o
 .rel.rodata    0x0000000000450094      0x280 arch/arm/cpu/armv7/start.o
 .rel.text.zynq_ddrc_init
                0x0000000000450314       0x10 arch/arm/cpu/armv7/start.o
 .rel.text.zynq_slcr_lock
                0x0000000000450324        0x8 arch/arm/cpu/armv7/start.o
 .rel.text.zynq_slcr_unlock
                0x000000000045032c        0x8 arch/arm/cpu/armv7/start.o
 .rel.text.zynq_slcr_gem_clk_setup
                0x0000000000450334        0x8 arch/arm/cpu/armv7/start.o
 .rel.text.zynq_slcr_get_mio_pin_status
                0x000000000045033c        0x0 arch/arm/cpu/armv7/start.o
 .rel.text.ddr2x_get_rate
                0x000000000045033c        0x8 arch/arm/cpu/armv7/start.o
 .rel.text.ddr3x_get_rate
                0x0000000000450344        0x8 arch/arm/cpu/armv7/start.o
 .rel.text.zynq_clk_periph_get_rate
                0x000000000045034c        0x8 arch/arm/cpu/armv7/start.o
 .rel.text.zynq_clk_periph_set_rate
                0x0000000000450354        0x8 arch/arm/cpu/armv7/start.o
 .rel.text.zynq_clk_register_periph_clk
                0x000000000045035c       0x18 arch/arm/cpu/armv7/start.o
 .rel.text.zynq_clk_early_init
                0x0000000000450374        0x8 arch/arm/cpu/armv7/start.o
 .rel.text.get_uart_clk
                0x000000000045037c       0x10 arch/arm/cpu/armv7/start.o
 .rel.text.set_cpu_clk_info
                0x000000000045038c      0x208 arch/arm/cpu/armv7/start.o
 .rel.text.zynq_clk_get_rate
                0x0000000000450594        0x0 arch/arm/cpu/armv7/start.o
 .rel.text.zynq_clk_set_rate
                0x0000000000450594        0x8 arch/arm/cpu/armv7/start.o
 .rel.text.zynq_clk_get_name
                0x000000000045059c        0x0 arch/arm/cpu/armv7/start.o
 .rel.text.soc_clk_dump
                0x000000000045059c       0x18 arch/arm/cpu/armv7/start.o
 .rel.rodata.mio_periphs
                0x00000000004505b4        0x0 arch/arm/cpu/armv7/start.o
 .rel.text.board_init
                0x00000000004505b4      0x130 arch/arm/cpu/armv7/start.o
 .rel.text.board_late_init
                0x00000000004506e4        0x0 arch/arm/cpu/armv7/start.o
 .rel.text.checkboard
                0x00000000004506e4        0x8 arch/arm/cpu/armv7/start.o
 .rel.rodata.fpga007s
                0x00000000004506ec       0x10 arch/arm/cpu/armv7/start.o
 .rel.rodata.fpga010
                0x00000000004506fc       0x10 arch/arm/cpu/armv7/start.o
 .rel.rodata.fpga012s
                0x000000000045070c       0x10 arch/arm/cpu/armv7/start.o
 .rel.rodata.fpga014s
                0x000000000045071c       0x10 arch/arm/cpu/armv7/start.o
 .rel.rodata.fpga015
                0x000000000045072c       0x10 arch/arm/cpu/armv7/start.o
 .rel.rodata.fpga020
                0x000000000045073c       0x10 arch/arm/cpu/armv7/start.o
 .rel.rodata.fpga030
                0x000000000045074c       0x10 arch/arm/cpu/armv7/start.o
 .rel.rodata.fpga035
                0x000000000045075c       0x10 arch/arm/cpu/armv7/start.o
 .rel.rodata.fpga045
                0x000000000045076c       0x10 arch/arm/cpu/armv7/start.o
 .rel.rodata.fpga100
                0x000000000045077c       0x10 arch/arm/cpu/armv7/start.o
 .rel.text.do_bootm
                0x000000000045078c       0x18 arch/arm/cpu/armv7/start.o
 .rel.text.do_bootd
                0x00000000004507a4        0x8 arch/arm/cpu/armv7/start.o
 .rel.text.image_info
                0x00000000004507ac       0x58 arch/arm/cpu/armv7/start.o
 .rel.text.do_iminfo
                0x0000000000450804        0x8 arch/arm/cpu/armv7/start.o
 .rel.text.bootm_maybe_autostart
                0x000000000045080c       0x20 arch/arm/cpu/armv7/start.o
 .rel.text.do_help
                0x000000000045082c       0x10 arch/arm/cpu/armv7/start.o
 .rel.text.do_version
                0x000000000045083c       0x20 arch/arm/cpu/armv7/start.o
 .rel.text.source
                0x000000000045085c       0x68 arch/arm/cpu/armv7/start.o
 .rel.text.do_source
                0x00000000004508c4       0x10 arch/arm/cpu/armv7/start.o
 .rel.text.print_num
                0x00000000004508d4        0x8 arch/arm/cpu/armv7/start.o
 .rel.text.do_bdinfo
                0x00000000004508dc       0x78 arch/arm/cpu/armv7/start.o
 .rel.text.bootefi_open_dp
                0x0000000000450954        0x8 arch/arm/cpu/armv7/start.o
 .rel.text.do_bootefi_exec
                0x000000000045095c       0x58 arch/arm/cpu/armv7/start.o
 .rel.text.do_bootefi
                0x00000000004509b4       0x10 arch/arm/cpu/armv7/start.o
 .rel.text.efi_set_bootdev
                0x00000000004509c4       0x30 arch/arm/cpu/armv7/start.o
 .rel.text.do_bootz
                0x00000000004509f4       0x18 arch/arm/cpu/armv7/start.o
 .rel.text.parse_argv
                0x0000000000450a0c       0x18 arch/arm/cpu/armv7/start.o
 .rel.text.invalidate_icache_all
                0x0000000000450a24        0x0 arch/arm/cpu/armv7/start.o
 .rel.text.do_icache
                0x0000000000450a24       0x18 arch/arm/cpu/armv7/start.o
 .rel.text.flush_dcache_all
                0x0000000000450a3c        0x0 arch/arm/cpu/armv7/start.o
 .rel.text.do_dcache
                0x0000000000450a3c       0x18 arch/arm/cpu/armv7/start.o
 .rel.text.do_clk
                0x0000000000450a54        0x8 arch/arm/cpu/armv7/start.o
 .rel.text.do_coninfo
                0x0000000000450a5c       0x28 arch/arm/cpu/armv7/start.o
 .rel.text.delete_param_from_memory
                0x0000000000450a84        0x8 arch/arm/cpu/armv7/start.o
 .rel.text.load_data
                0x0000000000450a8c       0x48 arch/arm/cpu/armv7/start.o
 .rel.text.set_param
                0x0000000000450ad4       0x40 arch/arm/cpu/armv7/start.o
 .rel.text.get_hiSkyID
                0x0000000000450b14       0x20 arch/arm/cpu/armv7/start.o
 .rel.text.set_rfSettings
                0x0000000000450b34       0x88 arch/arm/cpu/armv7/start.o
 .rel.text.set_wfSettings
                0x0000000000450bbc       0x30 arch/arm/cpu/armv7/start.o
 .rel.text.write_blobA
                0x0000000000450bec       0x30 arch/arm/cpu/armv7/start.o
 .rel.text.set_blobA_param
                0x0000000000450c1c       0x10 arch/arm/cpu/armv7/start.o
 .rel.text.set_macAddr
                0x0000000000450c2c       0x50 arch/arm/cpu/armv7/start.o
 .rel.text.set_hiSkyId
                0x0000000000450c7c       0x10 arch/arm/cpu/armv7/start.o
 .rel.text.print_param
                0x0000000000450c8c       0x10 arch/arm/cpu/armv7/start.o
 .rel.text.do_hsconf
                0x0000000000450c9c       0xb8 arch/arm/cpu/armv7/start.o
 .rel.text.do_echo
                0x0000000000450d54        0x8 arch/arm/cpu/armv7/start.o
 .rel.text.do_fat_fsinfo
                0x0000000000450d5c       0x10 arch/arm/cpu/armv7/start.o
 .rel.text.do_fat_fswrite
                0x0000000000450d6c       0x18 arch/arm/cpu/armv7/start.o
 .rel.text.fdt_valid
                0x0000000000450d84       0x28 arch/arm/cpu/armv7/start.o
 .rel.text.is_printable_string
                0x0000000000450dac        0x8 arch/arm/cpu/armv7/start.o
 .rel.text.print_data
                0x0000000000450db4       0x58 arch/arm/cpu/armv7/start.o
 .rel.text.set_working_fdt_addr
                0x0000000000450e0c       0x10 arch/arm/cpu/armv7/start.o
 .rel.text.do_fdt
                0x0000000000450e1c      0x250 arch/arm/cpu/armv7/start.o
 .rel.text.do_fpga
                0x000000000045106c       0xd8 arch/arm/cpu/armv7/start.o
 .rel.text.do_load_wrapper
                0x0000000000451144        0x8 arch/arm/cpu/armv7/start.o
 .rel.text.binary_test
                0x000000000045114c       0x70 arch/arm/cpu/armv7/start.o
 .rel.text.do_itest
                0x00000000004511bc       0x40 arch/arm/cpu/armv7/start.o
 .rel.text.bin_data_init
                0x00000000004511fc       0x18 arch/arm/cpu/armv7/start.o
 .rel.text.k_data_save
                0x0000000000451214       0x30 arch/arm/cpu/armv7/start.o
 .rel.text.k_data_restore
                0x0000000000451244       0x30 arch/arm/cpu/armv7/start.o
 .rel.text.do_save_serial
                0x0000000000451274       0x38 arch/arm/cpu/armv7/start.o
 .rel.text.load_serial_ymodem
                0x00000000004512ac       0x20 arch/arm/cpu/armv7/start.o
 .rel.text.bin_data_char
                0x00000000004512cc       0x10 arch/arm/cpu/armv7/start.o
 .rel.text.chk1.constprop.1
                0x00000000004512dc        0x8 arch/arm/cpu/armv7/start.o
 .rel.text.s1_sendpacket.constprop.2
                0x00000000004512e4       0x18 arch/arm/cpu/armv7/start.o
 .rel.text.load_serial
                0x00000000004512fc       0x68 arch/arm/cpu/armv7/start.o
 .rel.text.do_load_serial
                0x0000000000451364       0x30 arch/arm/cpu/armv7/start.o
 .rel.text.do_load_serial_bin
                0x0000000000451394       0xe8 arch/arm/cpu/armv7/start.o
 .rel.text.do_mem_mw
                0x000000000045147c        0x8 arch/arm/cpu/armv7/start.o
 .rel.text.do_mem_md
                0x0000000000451484       0x20 arch/arm/cpu/armv7/start.o
 .rel.text.do_mem_cmp
                0x00000000004514a4       0x38 arch/arm/cpu/armv7/start.o
 .rel.text.do_mem_base
                0x00000000004514dc       0x10 arch/arm/cpu/armv7/start.o
 .rel.text.do_mem_cp
                0x00000000004514ec       0x10 arch/arm/cpu/armv7/start.o
 .rel.text.do_mem_crc
                0x00000000004514fc        0x8 arch/arm/cpu/armv7/start.o
 .rel.text.mod_mem.isra.0
                0x0000000000451504       0x48 arch/arm/cpu/armv7/start.o
 .rel.text.do_mii
                0x000000000045154c      0x160 arch/arm/cpu/armv7/start.o
 .rel.text.do_mdio
                0x00000000004516ac       0x70 arch/arm/cpu/armv7/start.o
 .rel.text.do_mmcops
                0x000000000045171c       0x18 arch/arm/cpu/armv7/start.o
 .rel.text.init_mmc_device
                0x0000000000451734        0x8 arch/arm/cpu/armv7/start.o
 .rel.text.do_mmc_rescan
                0x000000000045173c        0x8 arch/arm/cpu/armv7/start.o
 .rel.text.do_mmc_hwpartition
                0x0000000000451744       0xb0 arch/arm/cpu/armv7/start.o
 .rel.text.do_mmc_dev
                0x00000000004517f4       0x38 arch/arm/cpu/armv7/start.o
 .rel.text.do_mmc_part
                0x000000000045182c       0x10 arch/arm/cpu/armv7/start.o
 .rel.text.do_mmc_erase
                0x000000000045183c       0x30 arch/arm/cpu/armv7/start.o
 .rel.text.do_mmc_write
                0x000000000045186c       0x30 arch/arm/cpu/armv7/start.o
 .rel.text.do_mmc_read
                0x000000000045189c       0x28 arch/arm/cpu/armv7/start.o
 .rel.text.do_mmcinfo
                0x00000000004518c4       0xf8 arch/arm/cpu/armv7/start.o
 .rel.text.do_mmc_setdsr
                0x00000000004519bc       0x28 arch/arm/cpu/armv7/start.o
 .rel.text.netboot_common
                0x00000000004519e4       0xc0 arch/arm/cpu/armv7/start.o
 .rel.text.do_ping
                0x0000000000451aa4       0x18 arch/arm/cpu/armv7/start.o
 .rel.text.do_spi_flash
                0x0000000000451abc       0xe0 arch/arm/cpu/armv7/start.o
 .rel.text.do_spi
                0x0000000000451b9c       0x68 arch/arm/cpu/armv7/start.o
 .rel.text.do_test
                0x0000000000451c04       0x70 arch/arm/cpu/armv7/start.o
 .rel.text.do_imgextract
                0x0000000000451c74       0xc8 arch/arm/cpu/armv7/start.o
 .rel.text.do_env_delete
                0x0000000000451d3c       0x10 arch/arm/cpu/armv7/start.o
 .rel.text.do_env_exists
                0x0000000000451d4c        0x8 arch/arm/cpu/armv7/start.o
 .rel.text.do_env_save
                0x0000000000451d54       0x10 arch/arm/cpu/armv7/start.o
 .rel.text.do_env
                0x0000000000451d64        0x8 arch/arm/cpu/armv7/start.o
 .rel.text.env_print
                0x0000000000451d6c       0x18 arch/arm/cpu/armv7/start.o
 .rel.text.do_env_print
                0x0000000000451d84       0x10 arch/arm/cpu/armv7/start.o
 .rel.text.do_env_import
                0x0000000000451d94       0x58 arch/arm/cpu/armv7/start.o
 .rel.text.do_env_default
                0x0000000000451dec        0x8 arch/arm/cpu/armv7/start.o
 .rel.text._do_env_set.isra.0
                0x0000000000451df4       0x30 arch/arm/cpu/armv7/start.o
 .rel.text.get_env_id
                0x0000000000451e24        0x8 arch/arm/cpu/armv7/start.o
 .rel.text.setenv
                0x0000000000451e2c        0x8 arch/arm/cpu/armv7/start.o
 .rel.text.setenv_hex
                0x0000000000451e34        0x8 arch/arm/cpu/armv7/start.o
 .rel.text.do_env_export
                0x0000000000451e3c       0x40 arch/arm/cpu/armv7/start.o
 .rel.text.getenv_f
                0x0000000000451e7c        0x8 arch/arm/cpu/armv7/start.o
 .rel.text.getenv
                0x0000000000451e84        0x8 arch/arm/cpu/armv7/start.o
 .rel.text.do_env_edit.part.2
                0x0000000000451e8c       0x18 arch/arm/cpu/armv7/start.o
 .rel.rodata.op_table
                0x0000000000451ea4       0x68 arch/arm/cpu/armv7/start.o
 .rel.rodata.desc_and_len_tbl
                0x0000000000451f0c       0x30 arch/arm/cpu/armv7/start.o
 .rel.rodata.reg_0_5_desc_tbl
                0x0000000000451f3c       0x30 arch/arm/cpu/armv7/start.o
 .rel.rodata.reg_0_desc_tbl
                0x0000000000451f6c       0x50 arch/arm/cpu/armv7/start.o
 .rel.rodata.reg_1_desc_tbl
                0x0000000000451fbc       0x80 arch/arm/cpu/armv7/start.o
 .rel.rodata.reg_2_desc_tbl
                0x000000000045203c        0x8 arch/arm/cpu/armv7/start.o
 .rel.rodata.reg_3_desc_tbl
                0x0000000000452044       0x18 arch/arm/cpu/armv7/start.o
 .rel.rodata.reg_4_desc_tbl
                0x000000000045205c       0x60 arch/arm/cpu/armv7/start.o
 .rel.rodata.reg_5_desc_tbl
                0x00000000004520bc       0x60 arch/arm/cpu/armv7/start.o
 .rel.rodata.op_adv
                0x000000000045211c       0x80 arch/arm/cpu/armv7/start.o
 .rel.u_boot_list_2_cmd_2_reset
                0x000000000045219c       0x20 arch/arm/cpu/armv7/start.o
 .rel.data.cmd_bootm_sub
                0x00000000004521bc       0xd8 arch/arm/cpu/armv7/start.o
 .rel.u_boot_list_2_cmd_2_boot
                0x0000000000452294       0x20 arch/arm/cpu/armv7/start.o
 .rel.u_boot_list_2_cmd_2_bootd
                0x00000000004522b4       0x20 arch/arm/cpu/armv7/start.o
 .rel.u_boot_list_2_cmd_2_bootm
                0x00000000004522d4       0x20 arch/arm/cpu/armv7/start.o
 .rel.u_boot_list_2_cmd_2_iminfo
                0x00000000004522f4       0x20 arch/arm/cpu/armv7/start.o
 .rel.u_boot_list_2_cmd_2_help
                0x0000000000452314       0x20 arch/arm/cpu/armv7/start.o
 .rel.u_boot_list_2_cmd_2_question_mark
                0x0000000000452334       0x20 arch/arm/cpu/armv7/start.o
 .rel.u_boot_list_2_cmd_2_version
                0x0000000000452354       0x20 arch/arm/cpu/armv7/start.o
 .rel.u_boot_list_2_cmd_2_source
                0x0000000000452374       0x20 arch/arm/cpu/armv7/start.o
 .rel.u_boot_list_2_cmd_2_bdinfo
                0x0000000000452394       0x20 arch/arm/cpu/armv7/start.o
 .rel.data.bootefi_device_obj
                0x00000000004523b4       0x18 arch/arm/cpu/armv7/start.o
 .rel.data.loaded_image_info
                0x00000000004523cc       0x10 arch/arm/cpu/armv7/start.o
 .rel.data.loaded_image_info_obj
                0x00000000004523dc       0x28 arch/arm/cpu/armv7/start.o
 .rel.u_boot_list_2_cmd_2_bootefi
                0x0000000000452404       0x20 arch/arm/cpu/armv7/start.o
 .rel.u_boot_list_2_cmd_2_bootz
                0x0000000000452424       0x20 arch/arm/cpu/armv7/start.o
 .rel.u_boot_list_2_cmd_2_dcache
                0x0000000000452444       0x20 arch/arm/cpu/armv7/start.o
 .rel.u_boot_list_2_cmd_2_icache
                0x0000000000452464       0x20 arch/arm/cpu/armv7/start.o
 .rel.data.cmd_clk_sub
                0x0000000000452484       0x20 arch/arm/cpu/armv7/start.o
 .rel.u_boot_list_2_cmd_2_clk
                0x00000000004524a4       0x20 arch/arm/cpu/armv7/start.o
 .rel.u_boot_list_2_cmd_2_coninfo
                0x00000000004524c4       0x20 arch/arm/cpu/armv7/start.o
 .rel.data.WiFiPasswdTag
                0x00000000004524e4       0x18 arch/arm/cpu/armv7/start.o
 .rel.data.hiSkyIdTag
                0x00000000004524fc       0x18 arch/arm/cpu/armv7/start.o
 .rel.data.macAddrTag
                0x0000000000452514       0x18 arch/arm/cpu/armv7/start.o
 .rel.data.paramTable
                0x000000000045252c       0xc0 arch/arm/cpu/armv7/start.o
 .rel.data.rfSettingsTag
                0x00000000004525ec       0x18 arch/arm/cpu/armv7/start.o
 .rel.data.ssidTag
                0x0000000000452604       0x18 arch/arm/cpu/armv7/start.o
 .rel.data.wfSettingsTag
                0x000000000045261c       0x18 arch/arm/cpu/armv7/start.o
 .rel.u_boot_list_2_cmd_2_hsconf
                0x0000000000452634       0x20 arch/arm/cpu/armv7/start.o
 .rel.u_boot_list_2_cmd_2_echo
                0x0000000000452654       0x20 arch/arm/cpu/armv7/start.o
 .rel.u_boot_list_2_cmd_2_exit
                0x0000000000452674       0x20 arch/arm/cpu/armv7/start.o
 .rel.u_boot_list_2_cmd_2_fatinfo
                0x0000000000452694       0x20 arch/arm/cpu/armv7/start.o
 .rel.u_boot_list_2_cmd_2_fatload
                0x00000000004526b4       0x20 arch/arm/cpu/armv7/start.o
 .rel.u_boot_list_2_cmd_2_fatls
                0x00000000004526d4       0x20 arch/arm/cpu/armv7/start.o
 .rel.u_boot_list_2_cmd_2_fatsize
                0x00000000004526f4       0x20 arch/arm/cpu/armv7/start.o
 .rel.u_boot_list_2_cmd_2_fatwrite
                0x0000000000452714       0x20 arch/arm/cpu/armv7/start.o
 .rel.u_boot_list_2_cmd_2_fdt
                0x0000000000452734       0x20 arch/arm/cpu/armv7/start.o
 .rel.u_boot_list_2_cmd_2_fpga
                0x0000000000452754       0x20 arch/arm/cpu/armv7/start.o
 .rel.u_boot_list_2_cmd_2_fstype
                0x0000000000452774       0x20 arch/arm/cpu/armv7/start.o
 .rel.u_boot_list_2_cmd_2_load
                0x0000000000452794       0x20 arch/arm/cpu/armv7/start.o
 .rel.u_boot_list_2_cmd_2_ls
                0x00000000004527b4       0x20 arch/arm/cpu/armv7/start.o
 .rel.u_boot_list_2_cmd_2_save
                0x00000000004527d4       0x20 arch/arm/cpu/armv7/start.o
 .rel.u_boot_list_2_cmd_2_size
                0x00000000004527f4       0x20 arch/arm/cpu/armv7/start.o
 .rel.u_boot_list_2_cmd_2_itest
                0x0000000000452814       0x20 arch/arm/cpu/armv7/start.o
 .rel.u_boot_list_2_cmd_2_loadb
                0x0000000000452834       0x20 arch/arm/cpu/armv7/start.o
 .rel.u_boot_list_2_cmd_2_loads
                0x0000000000452854       0x20 arch/arm/cpu/armv7/start.o
 .rel.u_boot_list_2_cmd_2_loadx
                0x0000000000452874       0x20 arch/arm/cpu/armv7/start.o
 .rel.u_boot_list_2_cmd_2_loady
                0x0000000000452894       0x20 arch/arm/cpu/armv7/start.o
 .rel.u_boot_list_2_cmd_2_saves
                0x00000000004528b4       0x20 arch/arm/cpu/armv7/start.o
 .rel.u_boot_list_2_cmd_2_base
                0x00000000004528d4       0x20 arch/arm/cpu/armv7/start.o
 .rel.u_boot_list_2_cmd_2_cmp
                0x00000000004528f4       0x20 arch/arm/cpu/armv7/start.o
 .rel.u_boot_list_2_cmd_2_cp
                0x0000000000452914       0x20 arch/arm/cpu/armv7/start.o
 .rel.u_boot_list_2_cmd_2_crc32
                0x0000000000452934       0x20 arch/arm/cpu/armv7/start.o
 .rel.u_boot_list_2_cmd_2_loop
                0x0000000000452954       0x20 arch/arm/cpu/armv7/start.o
 .rel.u_boot_list_2_cmd_2_md
                0x0000000000452974       0x20 arch/arm/cpu/armv7/start.o
 .rel.u_boot_list_2_cmd_2_mm
                0x0000000000452994       0x20 arch/arm/cpu/armv7/start.o
 .rel.u_boot_list_2_cmd_2_mw
                0x00000000004529b4       0x20 arch/arm/cpu/armv7/start.o
 .rel.u_boot_list_2_cmd_2_nm
                0x00000000004529d4       0x20 arch/arm/cpu/armv7/start.o
 .rel.u_boot_list_2_cmd_2_mii
                0x00000000004529f4       0x20 arch/arm/cpu/armv7/start.o
 .rel.u_boot_list_2_cmd_2_mdio
                0x0000000000452a14       0x20 arch/arm/cpu/armv7/start.o
 .rel.u_boot_list_2_cmd_2_sleep
                0x0000000000452a34       0x20 arch/arm/cpu/armv7/start.o
 .rel.data.cmd_mmc
                0x0000000000452a54      0x140 arch/arm/cpu/armv7/start.o
 .rel.u_boot_list_2_cmd_2_mmc
                0x0000000000452b94       0x20 arch/arm/cpu/armv7/start.o
 .rel.u_boot_list_2_cmd_2_mmcinfo
                0x0000000000452bb4       0x20 arch/arm/cpu/armv7/start.o
 .rel.u_boot_list_2_cmd_2_bootp
                0x0000000000452bd4       0x20 arch/arm/cpu/armv7/start.o
 .rel.u_boot_list_2_cmd_2_ping
                0x0000000000452bf4       0x20 arch/arm/cpu/armv7/start.o
 .rel.u_boot_list_2_cmd_2_tftpboot
                0x0000000000452c14       0x20 arch/arm/cpu/armv7/start.o
 .rel.u_boot_list_2_cmd_2_tftpput
                0x0000000000452c34       0x20 arch/arm/cpu/armv7/start.o
 .rel.u_boot_list_2_cmd_2_sf
                0x0000000000452c54       0x20 arch/arm/cpu/armv7/start.o
 .rel.u_boot_list_2_cmd_2_sspi
                0x0000000000452c74       0x20 arch/arm/cpu/armv7/start.o
 .rel.u_boot_list_2_cmd_2_false
                0x0000000000452c94       0x18 arch/arm/cpu/armv7/start.o
 .rel.u_boot_list_2_cmd_2_test
                0x0000000000452cac       0x20 arch/arm/cpu/armv7/start.o
 .rel.u_boot_list_2_cmd_2_true
                0x0000000000452ccc       0x18 arch/arm/cpu/armv7/start.o
 .rel.u_boot_list_2_cmd_2_imxtract
                0x0000000000452ce4       0x20 arch/arm/cpu/armv7/start.o
 .rel.data.cmd_env_sub
                0x0000000000452d04      0x140 arch/arm/cpu/armv7/start.o
 .rel.u_boot_list_2_cmd_2_editenv
                0x0000000000452e44       0x20 arch/arm/cpu/armv7/start.o
 .rel.u_boot_list_2_cmd_2_env
                0x0000000000452e64       0x20 arch/arm/cpu/armv7/start.o
 .rel.u_boot_list_2_cmd_2_printenv
                0x0000000000452e84       0x20 arch/arm/cpu/armv7/start.o
 .rel.u_boot_list_2_cmd_2_run
                0x0000000000452ea4       0x20 arch/arm/cpu/armv7/start.o
 .rel.u_boot_list_2_cmd_2_saveenv
                0x0000000000452ec4       0x20 arch/arm/cpu/armv7/start.o
 .rel.u_boot_list_2_cmd_2_setenv
                0x0000000000452ee4       0x20 arch/arm/cpu/armv7/start.o
 .rel.text.main_loop
                0x0000000000452f04       0xa8 arch/arm/cpu/armv7/start.o
 .rel.text.jumptable_init
                0x0000000000452fac       0xd8 arch/arm/cpu/armv7/start.o
 .rel.text.hash_lookup_algo
                0x0000000000453084        0x8 arch/arm/cpu/armv7/start.o
 .rel.text.hash_progressive_lookup_algo
                0x000000000045308c        0x0 arch/arm/cpu/armv7/start.o
 .rel.text.hash_command
                0x000000000045308c       0x28 arch/arm/cpu/armv7/start.o
 .rel.text.md5_check
                0x00000000004530b4       0x78 arch/arm/cpu/armv7/start.o
 .rel.text.do_oscheck
                0x000000000045312c       0x60 arch/arm/cpu/armv7/start.o
 .rel.text.mapset
                0x000000000045318c        0x8 arch/arm/cpu/armv7/start.o
 .rel.text.syntax_err
                0x0000000000453194        0x8 arch/arm/cpu/armv7/start.o
 .rel.text.xmalloc
                0x000000000045319c        0x8 arch/arm/cpu/armv7/start.o
 .rel.text.xrealloc
                0x00000000004531a4        0x8 arch/arm/cpu/armv7/start.o
 .rel.text.done_word
                0x00000000004531ac        0x8 arch/arm/cpu/armv7/start.o
 .rel.text.do_showvar
                0x00000000004531b4       0x20 arch/arm/cpu/armv7/start.o
 .rel.text.is_assignment
                0x00000000004531d4        0x8 arch/arm/cpu/armv7/start.o
 .rel.text.file_get
                0x00000000004531dc       0x30 arch/arm/cpu/armv7/start.o
 .rel.text.b_addqchr
                0x000000000045320c        0x8 arch/arm/cpu/armv7/start.o
 .rel.text.get_local_var
                0x0000000000453214       0x20 arch/arm/cpu/armv7/start.o
 .rel.text.set_local_var
                0x0000000000453234       0x20 arch/arm/cpu/armv7/start.o
 .rel.text.insert_var_value_sub
                0x0000000000453254        0x8 arch/arm/cpu/armv7/start.o
 .rel.text.unset_local_var
                0x000000000045325c        0x0 arch/arm/cpu/armv7/start.o
 .rel.text.parse_string_outer
                0x000000000045325c       0x18 arch/arm/cpu/armv7/start.o
 .rel.text.run_list_real
                0x0000000000453274       0x40 arch/arm/cpu/armv7/start.o
 .rel.text.parse_stream_outer
                0x00000000004532b4       0x68 arch/arm/cpu/armv7/start.o
 .rel.text.parse_file_outer
                0x000000000045331c       0x10 arch/arm/cpu/armv7/start.o
 .rel.text.u_boot_hush_start
                0x000000000045332c       0x18 arch/arm/cpu/armv7/start.o
 .rel.text.bootdelay_process
                0x0000000000453344       0x38 arch/arm/cpu/armv7/start.o
 .rel.text.autoboot_command
                0x000000000045337c       0x20 arch/arm/cpu/armv7/start.o
 .rel.text.setup_mon_len
                0x000000000045339c       0x10 arch/arm/cpu/armv7/start.o
 .rel.text.announce_dram_init
                0x00000000004533ac        0x8 arch/arm/cpu/armv7/start.o
 .rel.text.init_baud_rate
                0x00000000004533b4        0x8 arch/arm/cpu/armv7/start.o
 .rel.text.show_dram_config
                0x00000000004533bc        0x8 arch/arm/cpu/armv7/start.o
 .rel.text.board_init_f
                0x00000000004533c4        0x8 arch/arm/cpu/armv7/start.o
 .rel.text.initr_net
                0x00000000004533cc        0x8 arch/arm/cpu/armv7/start.o
 .rel.text.initr_ethaddr
                0x00000000004533d4        0x8 arch/arm/cpu/armv7/start.o
 .rel.text.initr_env
                0x00000000004533dc       0x20 arch/arm/cpu/armv7/start.o
 .rel.text.initr_mmc
                0x00000000004533fc        0x8 arch/arm/cpu/armv7/start.o
 .rel.text.initr_reloc_global_data
                0x0000000000453404       0x18 arch/arm/cpu/armv7/start.o
 .rel.text.board_init_r
                0x000000000045341c        0x8 arch/arm/cpu/armv7/start.o
 .rel.text.show_board_info
                0x0000000000453424       0x10 arch/arm/cpu/armv7/start.o
 .rel.text.bootm_find_images
                0x0000000000453434       0x28 arch/arm/cpu/armv7/start.o
 .rel.text.bootm_decomp_image
                0x000000000045345c       0x48 arch/arm/cpu/armv7/start.o
 .rel.text.do_bootm_states
                0x00000000004534a4       0xf0 arch/arm/cpu/armv7/start.o
 .rel.text.do_bootm_rtems
                0x0000000000453594       0x20 arch/arm/cpu/armv7/start.o
 .rel.text.do_bootm_plan9
                0x00000000004535b4       0x30 arch/arm/cpu/armv7/start.o
 .rel.text.do_bootm_standalone
                0x00000000004535e4       0x18 arch/arm/cpu/armv7/start.o
 .rel.text.do_bootm_netbsd
                0x00000000004535fc       0x30 arch/arm/cpu/armv7/start.o
 .rel.text.do_bootvx_fdt
                0x000000000045362c       0x38 arch/arm/cpu/armv7/start.o
 .rel.text.do_bootm_vxworks
                0x0000000000453664       0x18 arch/arm/cpu/armv7/start.o
 .rel.text.bootm_os_get_boot_func
                0x000000000045367c        0x8 arch/arm/cpu/armv7/start.o
 .rel.text.regex_callback
                0x0000000000453684       0x10 arch/arm/cpu/armv7/start.o
 .rel.text.env_attr_lookup
                0x0000000000453694        0x8 arch/arm/cpu/armv7/start.o
 .rel.text.find_env_callback
                0x000000000045369c       0x10 arch/arm/cpu/armv7/start.o
 .rel.text.on_callbacks
                0x00000000004536ac       0x20 arch/arm/cpu/armv7/start.o
 .rel.text.set_callback
                0x00000000004536cc        0x8 arch/arm/cpu/armv7/start.o
 .rel.text.env_callback_init
                0x00000000004536d4       0x20 arch/arm/cpu/armv7/start.o
 .rel.text.skip_num
                0x00000000004536f4        0x8 arch/arm/cpu/armv7/start.o
 .rel.text.on_flags
                0x00000000004536fc       0x20 arch/arm/cpu/armv7/start.o
 .rel.text.env_flags_parse_vartype
                0x000000000045371c       0x10 arch/arm/cpu/armv7/start.o
 .rel.text.env_flags_parse_varaccess
                0x000000000045372c       0x10 arch/arm/cpu/armv7/start.o
 .rel.text.set_flags
                0x000000000045373c       0x10 arch/arm/cpu/armv7/start.o
 .rel.text.env_flags_parse_varaccess_from_binflags
                0x000000000045374c        0x0 arch/arm/cpu/armv7/start.o
 .rel.text.env_flags_init
                0x000000000045374c       0x30 arch/arm/cpu/armv7/start.o
 .rel.text.env_flags_validate
                0x000000000045377c       0x68 arch/arm/cpu/armv7/start.o
 .rel.text.saveenv
                0x00000000004537e4       0x28 arch/arm/cpu/armv7/start.o
 .rel.text.env_relocate_spec
                0x000000000045380c       0x18 arch/arm/cpu/armv7/start.o
 .rel.text.env_init
                0x0000000000453824        0x8 arch/arm/cpu/armv7/start.o
 .rel.text.of_bus_default_count_cells
                0x000000000045382c        0x8 arch/arm/cpu/armv7/start.o
 .rel.text.fdt_find_or_add_subnode
                0x0000000000453834       0x10 arch/arm/cpu/armv7/start.o
 .rel.text.fdt_root
                0x0000000000453844       0x20 arch/arm/cpu/armv7/start.o
 .rel.text.fdt_initrd
                0x0000000000453864       0x30 arch/arm/cpu/armv7/start.o
 .rel.text.fdt_chosen
                0x0000000000453894       0x20 arch/arm/cpu/armv7/start.o
 .rel.text.do_fixup_by_path
                0x00000000004538b4        0x8 arch/arm/cpu/armv7/start.o
 .rel.text.fdt_fixup_memory_banks
                0x00000000004538bc       0x38 arch/arm/cpu/armv7/start.o
 .rel.text.fdt_fixup_ethernet
                0x00000000004538f4       0x30 arch/arm/cpu/armv7/start.o
 .rel.text.fdt_del_node_and_alias
                0x0000000000453924        0x0 arch/arm/cpu/armv7/start.o
 .rel.text.fdt_translate_address
                0x0000000000453924       0x20 arch/arm/cpu/armv7/start.o
 .rel.text.fdt_node_offset_by_compat_reg
                0x0000000000453944        0x0 arch/arm/cpu/armv7/start.o
 .rel.text.fdt_set_phandle
                0x0000000000453944        0x0 arch/arm/cpu/armv7/start.o
 .rel.text.fdt_create_phandle
                0x0000000000453944        0x0 arch/arm/cpu/armv7/start.o
 .rel.text.fdt_set_node_status
                0x0000000000453944        0x0 arch/arm/cpu/armv7/start.o
 .rel.text.fdt_verify_alias_address
                0x0000000000453944        0x0 arch/arm/cpu/armv7/start.o
 .rel.text.fdt_get_base_address
                0x0000000000453944        0x0 arch/arm/cpu/armv7/start.o
 .rel.text.fdt_read_range
                0x0000000000453944        0x0 arch/arm/cpu/armv7/start.o
 .rel.text.fdt_setup_simplefb_node
                0x0000000000453944        0x0 arch/arm/cpu/armv7/start.o
 .rel.text.fdt_fixup_display
                0x0000000000453944        0x0 arch/arm/cpu/armv7/start.o
 .rel.text.miiphy_get_dev_by_name
                0x0000000000453944       0x10 arch/arm/cpu/armv7/start.o
 .rel.text.miiphy_init
                0x0000000000453954       0x10 arch/arm/cpu/armv7/start.o
 .rel.text.mdio_register
                0x0000000000453964       0x18 arch/arm/cpu/armv7/start.o
 .rel.text.mdio_register_seq
                0x000000000045397c        0x8 arch/arm/cpu/armv7/start.o
 .rel.text.mdio_unregister
                0x0000000000453984        0x8 arch/arm/cpu/armv7/start.o
 .rel.text.mdio_list_devices
                0x000000000045398c       0x28 arch/arm/cpu/armv7/start.o
 .rel.text.miiphy_set_current_dev
                0x00000000004539b4       0x10 arch/arm/cpu/armv7/start.o
 .rel.text.miiphy_get_active_dev
                0x00000000004539c4        0x8 arch/arm/cpu/armv7/start.o
 .rel.text.mdio_get_current_dev
                0x00000000004539cc        0x8 arch/arm/cpu/armv7/start.o
 .rel.text.mdio_phydev_for_ethname
                0x00000000004539d4       0x10 arch/arm/cpu/armv7/start.o
 .rel.text.miiphy_get_current_dev
                0x00000000004539e4        0x8 arch/arm/cpu/armv7/start.o
 .rel.text.miiphy_listdev
                0x00000000004539ec       0x30 arch/arm/cpu/armv7/start.o
 .rel.text.miiphy_is_1000base_x
                0x0000000000453a1c        0x8 arch/arm/cpu/armv7/start.o
 .rel.text.miiphy_speed
                0x0000000000453a24       0x28 arch/arm/cpu/armv7/start.o
 .rel.text.miiphy_duplex
                0x0000000000453a4c       0x30 arch/arm/cpu/armv7/start.o
 .rel.text.miiphy_link
                0x0000000000453a7c        0x0 arch/arm/cpu/armv7/start.o
 .rel.text.env_get_addr
                0x0000000000453a7c        0x8 arch/arm/cpu/armv7/start.o
 .rel.text.env_get_char
                0x0000000000453a84        0x8 arch/arm/cpu/armv7/start.o
 .rel.text.set_default_env
                0x0000000000453a8c       0x40 arch/arm/cpu/armv7/start.o
 .rel.text.set_default_vars
                0x0000000000453acc       0x10 arch/arm/cpu/armv7/start.o
 .rel.text.env_import
                0x0000000000453adc       0x38 arch/arm/cpu/armv7/start.o
 .rel.text.env_export
                0x0000000000453b14       0x28 arch/arm/cpu/armv7/start.o
 .rel.text.env_relocate
                0x0000000000453b3c        0x8 arch/arm/cpu/armv7/start.o
 .rel.text.console_setfile
                0x0000000000453b44       0x30 arch/arm/cpu/armv7/start.o
 .rel.text.putc
                0x0000000000453b74        0x8 arch/arm/cpu/armv7/start.o
 .rel.text.puts
                0x0000000000453b7c        0x8 arch/arm/cpu/armv7/start.o
 .rel.text.fgetc
                0x0000000000453b84        0x8 arch/arm/cpu/armv7/start.o
 .rel.text.ftstc
                0x0000000000453b8c        0x8 arch/arm/cpu/armv7/start.o
 .rel.text.fputc
                0x0000000000453b94        0x0 arch/arm/cpu/armv7/start.o
 .rel.text.fputs
                0x0000000000453b94        0x0 arch/arm/cpu/armv7/start.o
 .rel.text.ctrlc
                0x0000000000453b94       0x10 arch/arm/cpu/armv7/start.o
 .rel.text.confirm_yesno
                0x0000000000453ba4        0x0 arch/arm/cpu/armv7/start.o
 .rel.text.disable_ctrlc
                0x0000000000453ba4        0x8 arch/arm/cpu/armv7/start.o
 .rel.text.had_ctrlc
                0x0000000000453bac        0x8 arch/arm/cpu/armv7/start.o
 .rel.text.clear_ctrlc
                0x0000000000453bb4        0x8 arch/arm/cpu/armv7/start.o
 .rel.text.on_console
                0x0000000000453bbc       0x20 arch/arm/cpu/armv7/start.o
 .rel.text.stdio_print_current_devices
                0x0000000000453bdc       0x40 arch/arm/cpu/armv7/start.o
 .rel.text.console_init_r
                0x0000000000453c1c       0x48 arch/arm/cpu/armv7/start.o
 .rel.text.sbrk
                0x0000000000453c64       0x18 arch/arm/cpu/armv7/start.o
 .rel.text.mem_malloc_init
                0x0000000000453c7c       0x18 arch/arm/cpu/armv7/start.o
 .rel.text.malloc_trim
                0x0000000000453c94       0x18 arch/arm/cpu/armv7/start.o
 .rel.text.free
                0x0000000000453cac       0x20 arch/arm/cpu/armv7/start.o
 .rel.text.malloc
                0x0000000000453ccc       0x48 arch/arm/cpu/armv7/start.o
 .rel.text.calloc
                0x0000000000453d14        0x8 arch/arm/cpu/armv7/start.o
 .rel.text.realloc
                0x0000000000453d1c       0x10 arch/arm/cpu/armv7/start.o
 .rel.text.mallopt
                0x0000000000453d2c        0x0 arch/arm/cpu/armv7/start.o
 .rel.text.on_loadaddr
                0x0000000000453d2c        0x8 arch/arm/cpu/armv7/start.o
 .rel.text.getenv_bootm_low
                0x0000000000453d34        0x8 arch/arm/cpu/armv7/start.o
 .rel.text.getenv_bootm_size
                0x0000000000453d3c       0x10 arch/arm/cpu/armv7/start.o
 .rel.text.getenv_bootm_mapsize
                0x0000000000453d4c        0x8 arch/arm/cpu/armv7/start.o
 .rel.text.genimg_print_size
                0x0000000000453d54       0x10 arch/arm/cpu/armv7/start.o
 .rel.text.genimg_get_short_name
                0x0000000000453d64        0x0 arch/arm/cpu/armv7/start.o
 .rel.text.genimg_get_cat_name
                0x0000000000453d64        0x0 arch/arm/cpu/armv7/start.o
 .rel.text.genimg_get_cat_short_name
                0x0000000000453d64        0x0 arch/arm/cpu/armv7/start.o
 .rel.text.genimg_get_cat_count
                0x0000000000453d64        0x0 arch/arm/cpu/armv7/start.o
 .rel.text.genimg_get_cat_desc
                0x0000000000453d64        0x0 arch/arm/cpu/armv7/start.o
 .rel.text.genimg_get_os_name
                0x0000000000453d64       0x10 arch/arm/cpu/armv7/start.o
 .rel.text.genimg_get_arch_name
                0x0000000000453d74       0x10 arch/arm/cpu/armv7/start.o
 .rel.text.genimg_get_type_name
                0x0000000000453d84       0x10 arch/arm/cpu/armv7/start.o
 .rel.text.genimg_get_type_short_name
                0x0000000000453d94        0x0 arch/arm/cpu/armv7/start.o
 .rel.text.genimg_get_comp_name
                0x0000000000453d94       0x10 arch/arm/cpu/armv7/start.o
 .rel.text.image_print_contents
                0x0000000000453da4       0x58 arch/arm/cpu/armv7/start.o
 .rel.text.genimg_get_comp_short_name
                0x0000000000453dfc        0x0 arch/arm/cpu/armv7/start.o
 .rel.text.genimg_get_os_short_name
                0x0000000000453dfc        0x0 arch/arm/cpu/armv7/start.o
 .rel.text.genimg_get_arch_short_name
                0x0000000000453dfc        0x0 arch/arm/cpu/armv7/start.o
 .rel.text.genimg_get_os_id
                0x0000000000453dfc       0x10 arch/arm/cpu/armv7/start.o
 .rel.text.genimg_get_arch_id
                0x0000000000453e0c       0x10 arch/arm/cpu/armv7/start.o
 .rel.text.genimg_get_type_id
                0x0000000000453e1c       0x10 arch/arm/cpu/armv7/start.o
 .rel.text.genimg_get_comp_id
                0x0000000000453e2c       0x10 arch/arm/cpu/armv7/start.o
 .rel.text.genimg_get_kernel_addr_fit
                0x0000000000453e3c        0x8 arch/arm/cpu/armv7/start.o
 .rel.text.boot_get_ramdisk
                0x0000000000453e44       0x60 arch/arm/cpu/armv7/start.o
 .rel.text.boot_ramdisk_high
                0x0000000000453ea4       0x20 arch/arm/cpu/armv7/start.o
 .rel.text.boot_get_fpga
                0x0000000000453ec4       0x28 arch/arm/cpu/armv7/start.o
 .rel.text.boot_get_loadable
                0x0000000000453eec       0x20 arch/arm/cpu/armv7/start.o
 .rel.text.fdt_error
                0x0000000000453f0c       0x10 arch/arm/cpu/armv7/start.o
 .rel.text.boot_fdt_add_mem_rsv_regions
                0x0000000000453f1c        0x8 arch/arm/cpu/armv7/start.o
 .rel.text.boot_relocate_fdt
                0x0000000000453f24       0x40 arch/arm/cpu/armv7/start.o
 .rel.text.boot_get_fdt
                0x0000000000453f64       0x90 arch/arm/cpu/armv7/start.o
 .rel.text.image_setup_libfdt
                0x0000000000453ff4       0x20 arch/arm/cpu/armv7/start.o
 .rel.text.fit_image_get_address
                0x0000000000454014        0x8 arch/arm/cpu/armv7/start.o
 .rel.text.fit_get_desc
                0x000000000045401c        0x8 arch/arm/cpu/armv7/start.o
 .rel.text.fit_get_timestamp
                0x0000000000454024        0x0 arch/arm/cpu/armv7/start.o
 .rel.text.fit_image_get_node
                0x0000000000454024        0x8 arch/arm/cpu/armv7/start.o
 .rel.text.fit_image_get_os
                0x000000000045402c        0x8 arch/arm/cpu/armv7/start.o
 .rel.text.fit_image_get_arch
                0x0000000000454034        0x8 arch/arm/cpu/armv7/start.o
 .rel.text.fit_image_get_type
                0x000000000045403c        0x8 arch/arm/cpu/armv7/start.o
 .rel.text.fit_image_get_comp
                0x0000000000454044        0x8 arch/arm/cpu/armv7/start.o
 .rel.text.fit_image_get_load
                0x000000000045404c        0x8 arch/arm/cpu/armv7/start.o
 .rel.text.fit_image_get_entry
                0x0000000000454054        0x8 arch/arm/cpu/armv7/start.o
 .rel.text.fit_image_get_data
                0x000000000045405c        0x8 arch/arm/cpu/armv7/start.o
 .rel.text.fit_image_hash_get_algo
                0x0000000000454064        0x8 arch/arm/cpu/armv7/start.o
 .rel.text.fit_image_hash_get_value
                0x000000000045406c        0x8 arch/arm/cpu/armv7/start.o
 .rel.text.fit_image_print_data
                0x0000000000454074       0x58 arch/arm/cpu/armv7/start.o
 .rel.text.fit_image_print
                0x00000000004540cc       0x80 arch/arm/cpu/armv7/start.o
 .rel.text.fit_set_timestamp
                0x000000000045414c        0x0 arch/arm/cpu/armv7/start.o
 .rel.text.calculate_hash
                0x000000000045414c       0x20 arch/arm/cpu/armv7/start.o
 .rel.text.fit_image_verify
                0x000000000045416c       0x68 arch/arm/cpu/armv7/start.o
 .rel.text.fit_all_image_verify
                0x00000000004541d4       0x28 arch/arm/cpu/armv7/start.o
 .rel.text.fit_check_format
                0x00000000004541fc       0x10 arch/arm/cpu/armv7/start.o
 .rel.text.fit_conf_find_compat
                0x000000000045420c        0x0 arch/arm/cpu/armv7/start.o
 .rel.text.fit_conf_get_node
                0x000000000045420c       0x10 arch/arm/cpu/armv7/start.o
 .rel.text.fit_conf_print
                0x000000000045421c       0x70 arch/arm/cpu/armv7/start.o
 .rel.text.fit_print_contents
                0x000000000045428c       0x58 arch/arm/cpu/armv7/start.o
 .rel.text.fit_image_load
                0x00000000004542e4       0xa0 arch/arm/cpu/armv7/start.o
 .rel.text.boot_get_setup_fit
                0x0000000000454384        0x8 arch/arm/cpu/armv7/start.o
 .rel.text.stdio_get_list
                0x000000000045438c        0x8 arch/arm/cpu/armv7/start.o
 .rel.text.stdio_get_by_name
                0x0000000000454394        0x8 arch/arm/cpu/armv7/start.o
 .rel.text.stdio_register_dev
                0x000000000045439c        0x8 arch/arm/cpu/armv7/start.o
 .rel.text.stdio_init_tables
                0x00000000004543a4        0x8 arch/arm/cpu/armv7/start.o
 .rel.text.stdio_add_devices
                0x00000000004543ac       0x28 arch/arm/cpu/armv7/start.o
 .rel.text.cli_simple_parse_line
                0x00000000004543d4        0x0 arch/arm/cpu/armv7/start.o
 .rel.text.cli_simple_run_command
                0x00000000004543d4        0x0 arch/arm/cpu/armv7/start.o
 .rel.text.cli_simple_loop
                0x00000000004543d4        0x0 arch/arm/cpu/armv7/start.o
 .rel.text.do_run
                0x00000000004543d4        0x8 arch/arm/cpu/armv7/start.o
 .rel.text.cli_process_fdt
                0x00000000004543dc       0x10 arch/arm/cpu/armv7/start.o
 .rel.text.cli_secure_boot_cmd
                0x00000000004543ec       0x18 arch/arm/cpu/armv7/start.o
 .rel.text.delete_char.part.0
                0x0000000000454404       0x10 arch/arm/cpu/armv7/start.o
 .rel.text.cread_add_char
                0x0000000000454414        0x8 arch/arm/cpu/armv7/start.o
 .rel.text.cli_readline_into_buffer
                0x000000000045441c      0x170 arch/arm/cpu/armv7/start.o
 .rel.text.cli_readline
                0x000000000045458c        0x8 arch/arm/cpu/armv7/start.o
 .rel.text.find_cmd
                0x0000000000454594       0x10 arch/arm/cpu/armv7/start.o
 .rel.text.cmd_usage
                0x00000000004545a4       0x18 arch/arm/cpu/armv7/start.o
 .rel.text._do_help
                0x00000000004545bc       0x10 arch/arm/cpu/armv7/start.o
 .rel.text.cmd_get_data_size
                0x00000000004545cc        0x8 arch/arm/cpu/armv7/start.o
 .rel.text.cmd_process
                0x00000000004545d4       0x18 arch/arm/cpu/armv7/start.o
 .rel.text.cmd_process_error
                0x00000000004545ec        0x8 arch/arm/cpu/armv7/start.o
 .rel.text.srec_decode
                0x00000000004545f4       0x50 arch/arm/cpu/armv7/start.o
 .rel.text.xyzModem_get_hdr
                0x0000000000454644       0x30 arch/arm/cpu/armv7/start.o
 .rel.text.xyzModem_stream_open
                0x0000000000454674       0x10 arch/arm/cpu/armv7/start.o
 .rel.text.xyzModem_stream_read
                0x0000000000454684        0x8 arch/arm/cpu/armv7/start.o
 .rel.text.xyzModem_stream_close
                0x000000000045468c       0x20 arch/arm/cpu/armv7/start.o
 .rel.text.xyzModem_stream_terminate
                0x00000000004546ac        0x8 arch/arm/cpu/armv7/start.o
 .rel.text.xyzModem_error
                0x00000000004546b4       0x10 arch/arm/cpu/armv7/start.o
 .rel.rodata.boot_os
                0x00000000004546c4       0x30 arch/arm/cpu/armv7/start.o
 .rel.rodata.table_info
                0x00000000004546f4        0x0 arch/arm/cpu/armv7/start.o
 .rel.rodata.uimage_arch
                0x00000000004546f4      0x1a0 arch/arm/cpu/armv7/start.o
 .rel.rodata.uimage_comp
                0x0000000000454894       0x70 arch/arm/cpu/armv7/start.o
 .rel.rodata.uimage_os
                0x0000000000454904       0x90 arch/arm/cpu/armv7/start.o
 .rel.rodata.uimage_type
                0x0000000000454994      0x200 arch/arm/cpu/armv7/start.o
 .rel.rodata.CSWTCH.97
                0x0000000000454b94       0xd8 arch/arm/cpu/armv7/start.o
 .rel.rodata.CSWTCH.28
                0x0000000000454c6c       0x40 arch/arm/cpu/armv7/start.o
 .rel.data.hash_algo
                0x0000000000454cac       0x78 arch/arm/cpu/armv7/start.o
 .rel.data.reserved_list
                0x0000000000454d24       0x58 arch/arm/cpu/armv7/start.o
 .rel.u_boot_list_2_cmd_2_showvar
                0x0000000000454d7c       0x20 arch/arm/cpu/armv7/start.o
 .rel.data.init_sequence_f
                0x0000000000454d9c      0x128 arch/arm/cpu/armv7/start.o
 .rel.data.init_sequence_r
                0x0000000000454ec4       0xe0 arch/arm/cpu/armv7/start.o
 .rel.u_boot_list_2_env_clbk_2_callbacks
                0x0000000000454fa4       0x10 arch/arm/cpu/armv7/start.o
 .rel.u_boot_list_2_env_clbk_2_flags
                0x0000000000454fb4       0x10 arch/arm/cpu/armv7/start.o
 .rel.data.env_name_spec
                0x0000000000454fc4        0x8 arch/arm/cpu/armv7/start.o
 .rel.data.of_busses
                0x0000000000454fcc       0x28 arch/arm/cpu/armv7/start.o
 .rel.data.env_htab
                0x0000000000454ff4        0x8 arch/arm/cpu/armv7/start.o
 .rel.u_boot_list_2_env_clbk_2_console
                0x0000000000454ffc       0x10 arch/arm/cpu/armv7/start.o
 .rel.data.av_  0x000000000045500c      0x800 arch/arm/cpu/armv7/start.o
 .rel.u_boot_list_2_env_clbk_2_loadaddr
                0x000000000045580c       0x10 arch/arm/cpu/armv7/start.o
 .rel.data.stdio_names
                0x000000000045581c       0x18 arch/arm/cpu/armv7/start.o
 .rel.text.dev_print
                0x0000000000455834      0x110 arch/arm/cpu/armv7/start.o
 .rel.text.part_init
                0x0000000000455944       0x10 arch/arm/cpu/armv7/start.o
 .rel.text.part_print
                0x0000000000455954       0xb8 arch/arm/cpu/armv7/start.o
 .rel.text.part_get_info
                0x0000000000455a0c       0x10 arch/arm/cpu/armv7/start.o
 .rel.text.blk_get_device_by_str
                0x0000000000455a1c       0x18 arch/arm/cpu/armv7/start.o
 .rel.text.blk_get_device_part_str
                0x0000000000455a34       0x60 arch/arm/cpu/armv7/start.o
 .rel.text.part_get_info_by_name
                0x0000000000455a94        0x0 arch/arm/cpu/armv7/start.o
 .rel.text.part_set_generic_name
                0x0000000000455a94       0x18 arch/arm/cpu/armv7/start.o
 .rel.text.test_block_type
                0x0000000000455aac       0x10 arch/arm/cpu/armv7/start.o
 .rel.text.print_partition_extended
                0x0000000000455abc       0x30 arch/arm/cpu/armv7/start.o
 .rel.text.part_print_dos
                0x0000000000455aec        0x8 arch/arm/cpu/armv7/start.o
 .rel.text.part_get_info_extended.constprop.1
                0x0000000000455af4       0x18 arch/arm/cpu/armv7/start.o
 .rel.text.write_mbr_partition
                0x0000000000455b0c        0x0 arch/arm/cpu/armv7/start.o
 .rel.rodata.CSWTCH.46
                0x0000000000455b0c       0x40 arch/arm/cpu/armv7/start.o
 .rel.u_boot_list_2_part_driver_2_dos
                0x0000000000455b4c       0x20 arch/arm/cpu/armv7/start.o
 .rel.text.device_bind_common.isra.0
                0x0000000000455b6c       0x10 arch/arm/cpu/armv7/start.o
 .rel.text.device_probe
                0x0000000000455b7c       0x10 arch/arm/cpu/armv7/start.o
 .rel.text.dev_get_platdata
                0x0000000000455b8c       0x10 arch/arm/cpu/armv7/start.o
 .rel.text.dev_get_parent_platdata
                0x0000000000455b9c       0x10 arch/arm/cpu/armv7/start.o
 .rel.text.dev_get_uclass_platdata
                0x0000000000455bac       0x10 arch/arm/cpu/armv7/start.o
 .rel.text.dev_get_priv
                0x0000000000455bbc       0x10 arch/arm/cpu/armv7/start.o
 .rel.text.dev_get_uclass_priv
                0x0000000000455bcc       0x10 arch/arm/cpu/armv7/start.o
 .rel.text.dev_get_parent_priv
                0x0000000000455bdc       0x10 arch/arm/cpu/armv7/start.o
 .rel.text.dev_get_addr_index
                0x0000000000455bec        0x8 arch/arm/cpu/armv7/start.o
 .rel.text.dev_get_addr_size_index
                0x0000000000455bf4        0x0 arch/arm/cpu/armv7/start.o
 .rel.text.dev_get_addr_name
                0x0000000000455bf4        0x0 arch/arm/cpu/armv7/start.o
 .rel.text.lists_driver_lookup_name
                0x0000000000455bf4       0x10 arch/arm/cpu/armv7/start.o
 .rel.text.lists_uclass_lookup
                0x0000000000455c04       0x10 arch/arm/cpu/armv7/start.o
 .rel.text.lists_bind_drivers
                0x0000000000455c14       0x18 arch/arm/cpu/armv7/start.o
 .rel.text.lists_bind_fdt
                0x0000000000455c2c       0x28 arch/arm/cpu/armv7/start.o
 .rel.text.dm_root
                0x0000000000455c54        0x8 arch/arm/cpu/armv7/start.o
 .rel.text.dm_init
                0x0000000000455c5c       0x10 arch/arm/cpu/armv7/start.o
 .rel.text.dm_scan_platdata
                0x0000000000455c6c        0x8 arch/arm/cpu/armv7/start.o
 .rel.text.dm_scan_fdt_node
                0x0000000000455c74       0x10 arch/arm/cpu/armv7/start.o
 .rel.text.uclass_resolve_seq
                0x0000000000455c84        0x8 arch/arm/cpu/armv7/start.o
 .rel.text.device_remove
                0x0000000000455c8c       0x20 arch/arm/cpu/armv7/start.o
 .rel.text.simple_bus_post_bind
                0x0000000000455cac        0x8 arch/arm/cpu/armv7/start.o
 .rel.text.show_devices
                0x0000000000455cb4       0x30 arch/arm/cpu/armv7/start.o
 .rel.text.dm_dump_all
                0x0000000000455ce4       0x10 arch/arm/cpu/armv7/start.o
 .rel.text.dm_dump_uclass
                0x0000000000455cf4       0x20 arch/arm/cpu/armv7/start.o
 .rel.text.blk_get_devnum_by_typename
                0x0000000000455d14       0x10 arch/arm/cpu/armv7/start.o
 .rel.text.blk_list_devices
                0x0000000000455d24        0x0 arch/arm/cpu/armv7/start.o
 .rel.text.blk_print_device_num
                0x0000000000455d24        0x0 arch/arm/cpu/armv7/start.o
 .rel.text.blk_show_device
                0x0000000000455d24        0x0 arch/arm/cpu/armv7/start.o
 .rel.text.blk_create_devicef
                0x0000000000455d24        0x8 arch/arm/cpu/armv7/start.o
 .rel.text.fpga_no_sup
                0x0000000000455d2c       0x18 arch/arm/cpu/armv7/start.o
 .rel.text.fpga_get_desc
                0x0000000000455d44       0x10 arch/arm/cpu/armv7/start.o
 .rel.text.fpga_dev_info
                0x0000000000455d54       0x30 arch/arm/cpu/armv7/start.o
 .rel.text.fpga_validate
                0x0000000000455d84       0x10 arch/arm/cpu/armv7/start.o
 .rel.text.fpga_init
                0x0000000000455d94       0x10 arch/arm/cpu/armv7/start.o
 .rel.text.fpga_count
                0x0000000000455da4        0x8 arch/arm/cpu/armv7/start.o
 .rel.text.fpga_add
                0x0000000000455dac       0x38 arch/arm/cpu/armv7/start.o
 .rel.text.fpga_loadbitstream
                0x0000000000455de4       0x70 arch/arm/cpu/armv7/start.o
 .rel.text.fpga_fsload
                0x0000000000455e54       0x10 arch/arm/cpu/armv7/start.o
 .rel.text.fpga_load
                0x0000000000455e64       0x20 arch/arm/cpu/armv7/start.o
 .rel.text.fpga_dump
                0x0000000000455e84       0x20 arch/arm/cpu/armv7/start.o
 .rel.text.fpga_info
                0x0000000000455ea4       0x18 arch/arm/cpu/armv7/start.o
 .rel.text.zynq_align_dma_buffer
                0x0000000000455ebc       0x18 arch/arm/cpu/armv7/start.o
 .rel.text.zynq_dma_transfer.constprop.4
                0x0000000000455ed4       0x10 arch/arm/cpu/armv7/start.o
 .rel.text.zynq_validate_bitstream.isra.3
                0x0000000000455ee4       0x38 arch/arm/cpu/armv7/start.o
 .rel.text.zynq_loadfs
                0x0000000000455f1c       0x10 arch/arm/cpu/armv7/start.o
 .rel.text.zynq_load
                0x0000000000455f2c       0x10 arch/arm/cpu/armv7/start.o
 .rel.text.xilinx_validate
                0x0000000000455f3c       0x20 arch/arm/cpu/armv7/start.o
 .rel.text.xilinx_load
                0x0000000000455f5c       0x20 arch/arm/cpu/armv7/start.o
 .rel.text.xilinx_loadfs
                0x0000000000455f7c       0x18 arch/arm/cpu/armv7/start.o
 .rel.text.xilinx_dump
                0x0000000000455f94       0x20 arch/arm/cpu/armv7/start.o
 .rel.text.xilinx_info
                0x0000000000455fb4      0x128 arch/arm/cpu/armv7/start.o
 .rel.text._input_send_keycodes
                0x00000000004560dc        0x0 arch/arm/cpu/armv7/start.o
 .rel.text.input_add_tables
                0x00000000004560dc        0x0 arch/arm/cpu/armv7/start.o
 .rel.text.input_stdio_register
                0x00000000004560dc        0x0 arch/arm/cpu/armv7/start.o
 .rel.text.key_matrix_decode_fdt
                0x00000000004560dc        0x0 arch/arm/cpu/armv7/start.o
 .rel.rodata.root_info
                0x00000000004560dc        0x8 arch/arm/cpu/armv7/start.o
 .rel.rodata.generic_simple_bus_ids
                0x00000000004560e4       0x10 arch/arm/cpu/armv7/start.o
 .rel.rodata.if_typename_str
                0x00000000004560f4       0x50 arch/arm/cpu/armv7/start.o
 .rel.rodata.kbd_to_ansi364
                0x0000000000456144        0x0 arch/arm/cpu/armv7/start.o
 .rel.u_boot_list_2_driver_2_root_driver
                0x0000000000456144        0x8 arch/arm/cpu/armv7/start.o
 .rel.u_boot_list_2_uclass_2_root
                0x000000000045614c        0x8 arch/arm/cpu/armv7/start.o
 .rel.u_boot_list_2_driver_2_simple_bus_drv
                0x0000000000456154       0x10 arch/arm/cpu/armv7/start.o
 .rel.u_boot_list_2_uclass_2_simple_bus
                0x0000000000456164       0x10 arch/arm/cpu/armv7/start.o
 .rel.u_boot_list_2_uclass_2_blk
                0x0000000000456174        0x8 arch/arm/cpu/armv7/start.o
 .rel.data.zynq_op
                0x000000000045617c       0x10 arch/arm/cpu/armv7/start.o
 .rel.data.kbd_entry
                0x000000000045618c        0x0 arch/arm/cpu/armv7/start.o
 .rel.text.check_reserved
                0x000000000045618c       0x10 arch/arm/cpu/armv7/start.o
 .rel.text.dm_gpio_lookup_name
                0x000000000045619c        0x0 arch/arm/cpu/armv7/start.o
 .rel.text.gpio_direction_input
                0x000000000045619c        0x0 arch/arm/cpu/armv7/start.o
 .rel.text.gpio_direction_output
                0x000000000045619c        0x0 arch/arm/cpu/armv7/start.o
 .rel.text.dm_gpio_get_value
                0x000000000045619c        0x0 arch/arm/cpu/armv7/start.o
 .rel.text.dm_gpio_set_value
                0x000000000045619c        0x8 arch/arm/cpu/armv7/start.o
 .rel.text.dm_gpio_get_open_drain
                0x00000000004561a4        0x0 arch/arm/cpu/armv7/start.o
 .rel.text.dm_gpio_set_open_drain
                0x00000000004561a4        0x0 arch/arm/cpu/armv7/start.o
 .rel.text.dm_gpio_set_dir_flags
                0x00000000004561a4        0x0 arch/arm/cpu/armv7/start.o
 .rel.text._gpio_request_by_name_nodev
                0x00000000004561a4        0x0 arch/arm/cpu/armv7/start.o
 .rel.text.gpio_get_status
                0x00000000004561a4        0x0 arch/arm/cpu/armv7/start.o
 .rel.text.gpio_get_list_count
                0x00000000004561a4        0x0 arch/arm/cpu/armv7/start.o
 .rel.text.check_gpio
                0x00000000004561a4        0x8 arch/arm/cpu/armv7/start.o
 .rel.text.zynq_gpio_get_function
                0x00000000004561ac        0x8 arch/arm/cpu/armv7/start.o
 .rel.text.zynq_gpio_set_value
                0x00000000004561b4        0x8 arch/arm/cpu/armv7/start.o
 .rel.text.zynq_gpio_get_value
                0x00000000004561bc        0x8 arch/arm/cpu/armv7/start.o
 .rel.text.zynq_gpio_direction_input
                0x00000000004561c4        0x8 arch/arm/cpu/armv7/start.o
 .rel.text.zynq_gpio_direction_output
                0x00000000004561cc        0x8 arch/arm/cpu/armv7/start.o
 .rel.text.zynq_gpio_probe
                0x00000000004561d4       0x10 arch/arm/cpu/armv7/start.o
 .rel.rodata.gpio_function
                0x00000000004561e4        0x0 arch/arm/cpu/armv7/start.o
 .rel.rodata.gpio_zynq_ops
                0x00000000004561e4       0x28 arch/arm/cpu/armv7/start.o
 .rel.rodata.zynq_gpio_def
                0x000000000045620c        0x8 arch/arm/cpu/armv7/start.o
 .rel.rodata.zynq_gpio_ids
                0x0000000000456214       0x20 arch/arm/cpu/armv7/start.o
 .rel.rodata.zynqmp_gpio_def
                0x0000000000456234        0x8 arch/arm/cpu/armv7/start.o
 .rel.u_boot_list_2_uclass_2_gpio
                0x000000000045623c       0x18 arch/arm/cpu/armv7/start.o
 .rel.u_boot_list_2_driver_2_gpio_zynq
                0x0000000000456254       0x28 arch/arm/cpu/armv7/start.o
 .rel.text.find_mmc_device
                0x000000000045627c        0x8 arch/arm/cpu/armv7/start.o
 .rel.text.print_mmc_devices
                0x0000000000456284       0x38 arch/arm/cpu/armv7/start.o
 .rel.text.mmc_bind
                0x00000000004562bc       0x10 arch/arm/cpu/armv7/start.o
 .rel.text.mmc_set_capacity
                0x00000000004562cc       0x40 arch/arm/cpu/armv7/start.o
 .rel.text.mmc_send_status
                0x000000000045630c       0x10 arch/arm/cpu/armv7/start.o
 .rel.text.mmc_bread
                0x000000000045631c       0x10 arch/arm/cpu/armv7/start.o
 .rel.text.mmc_change_freq
                0x000000000045632c       0x18 arch/arm/cpu/armv7/start.o
 .rel.text.mmc_hwpart_config
                0x0000000000456344       0x48 arch/arm/cpu/armv7/start.o
 .rel.text.mmc_startup
                0x000000000045638c       0xb8 arch/arm/cpu/armv7/start.o
 .rel.text.mmc_start_init
                0x0000000000456444       0x10 arch/arm/cpu/armv7/start.o
 .rel.text.mmc_initialize
                0x0000000000456454       0x10 arch/arm/cpu/armv7/start.o
 .rel.text.arasan_sdhci_ofdata_to_platdata
                0x0000000000456464       0x20 arch/arm/cpu/armv7/start.o
 .rel.text.mmc_berase
                0x0000000000456484       0x10 arch/arm/cpu/armv7/start.o
 .rel.text.mmc_bwrite
                0x0000000000456494       0x18 arch/arm/cpu/armv7/start.o
 .rel.text.sdhci_set_clock
                0x00000000004564ac       0x18 arch/arm/cpu/armv7/start.o
 .rel.text.sdhci_reset.isra.2
                0x00000000004564c4       0x10 arch/arm/cpu/armv7/start.o
 .rel.text.sdhci_send_command
                0x00000000004564d4       0x48 arch/arm/cpu/armv7/start.o
 .rel.text.sdhci_probe
                0x000000000045651c       0x18 arch/arm/cpu/armv7/start.o
 .rel.text.sdhci_setup_cfg
                0x0000000000456534       0x10 arch/arm/cpu/armv7/start.o
 .rel.rodata.mmc_blk_ops
                0x0000000000456544       0x20 arch/arm/cpu/armv7/start.o
 .rel.rodata.arasan_sdhci_ids
                0x0000000000456564        0x8 arch/arm/cpu/armv7/start.o
 .rel.rodata.sdhci_ops
                0x000000000045656c       0x28 arch/arm/cpu/armv7/start.o
 .rel.u_boot_list_2_driver_2_mmc
                0x0000000000456594        0x8 arch/arm/cpu/armv7/start.o
 .rel.u_boot_list_2_driver_2_mmc_blk
                0x000000000045659c       0x10 arch/arm/cpu/armv7/start.o
 .rel.u_boot_list_2_uclass_2_mmc
                0x00000000004565ac        0x8 arch/arm/cpu/armv7/start.o
 .rel.u_boot_list_2_driver_2_arasan_sdhci_drv
                0x00000000004565b4       0x30 arch/arm/cpu/armv7/start.o
 .rel.text.__mtd_next_device
                0x00000000004565e4        0x0 arch/arm/cpu/armv7/start.o
 .rel.text.del_mtd_device
                0x00000000004565e4        0x0 arch/arm/cpu/armv7/start.o
 .rel.text.get_mtd_device
                0x00000000004565e4        0x0 arch/arm/cpu/armv7/start.o
 .rel.text.__put_mtd_device
                0x00000000004565e4        0x0 arch/arm/cpu/armv7/start.o
 .rel.text.add_mtd_device
                0x00000000004565e4        0x0 arch/arm/cpu/armv7/start.o
 .rel.text.mtd_arg_off
                0x00000000004565e4       0x10 arch/arm/cpu/armv7/start.o
 .rel.text.mtd_arg_off_size
                0x00000000004565f4       0x28 arch/arm/cpu/armv7/start.o
 .rel.text.spi_flash_probe_bus_cs
                0x000000000045661c       0x10 arch/arm/cpu/armv7/start.o
 .rel.text.spi_flash_std_probe
                0x000000000045662c        0x8 arch/arm/cpu/armv7/start.o
 .rel.text.spi_flash_write_common
                0x0000000000456634        0x8 arch/arm/cpu/armv7/start.o
 .rel.text.spi_flash_cmd_erase_ops
                0x000000000045663c        0x8 arch/arm/cpu/armv7/start.o
 .rel.text.spi_flash_cmd_write_ops
                0x0000000000456644        0x8 arch/arm/cpu/armv7/start.o
 .rel.text.set_quad_mode.isra.5
                0x000000000045664c        0x8 arch/arm/cpu/armv7/start.o
 .rel.text.spi_flash_decode_fdt
                0x0000000000456654        0x8 arch/arm/cpu/armv7/start.o
 .rel.text.spi_flash_scan
                0x000000000045665c       0x80 arch/arm/cpu/armv7/start.o
 .rel.rodata.spi_flash_std_ids
                0x00000000004566dc        0x8 arch/arm/cpu/armv7/start.o
 .rel.rodata.spi_flash_std_ops
                0x00000000004566e4       0x18 arch/arm/cpu/armv7/start.o
 .rel.rodata.spi_flash_ids
                0x00000000004566fc      0x200 arch/arm/cpu/armv7/start.o
 .rel.u_boot_list_2_uclass_2_spi_flash
                0x00000000004568fc       0x10 arch/arm/cpu/armv7/start.o
 .rel.u_boot_list_2_driver_2_spi_flash_std
                0x000000000045690c       0x20 arch/arm/cpu/armv7/start.o
 .rel.text.nc_wait_arp_handler
                0x000000000045692c        0x8 arch/arm/cpu/armv7/start.o
 .rel.text.nc_handler
                0x0000000000456934       0x10 arch/arm/cpu/armv7/start.o
 .rel.text.nc_timeout_handler
                0x0000000000456944        0x8 arch/arm/cpu/armv7/start.o
 .rel.text.is_broadcast
                0x000000000045694c       0x28 arch/arm/cpu/armv7/start.o
 .rel.text.nc_stdio_getc
                0x0000000000456974       0x28 arch/arm/cpu/armv7/start.o
 .rel.text.nc_send_packet
                0x000000000045699c       0x50 arch/arm/cpu/armv7/start.o
 .rel.text.nc_stdio_putc
                0x00000000004569ec        0x8 arch/arm/cpu/armv7/start.o
 .rel.text.refresh_settings_from_env
                0x00000000004569f4       0x38 arch/arm/cpu/armv7/start.o
 .rel.text.nc_stdio_start
                0x0000000000456a2c       0x10 arch/arm/cpu/armv7/start.o
 .rel.text.nc_stdio_tstc
                0x0000000000456a3c       0x18 arch/arm/cpu/armv7/start.o
 .rel.text.nc_stdio_puts
                0x0000000000456a54        0x8 arch/arm/cpu/armv7/start.o
 .rel.text.nc_start
                0x0000000000456a5c       0x60 arch/arm/cpu/armv7/start.o
 .rel.text.nc_input_packet
                0x0000000000456abc       0x28 arch/arm/cpu/armv7/start.o
 .rel.text.drv_nc_init
                0x0000000000456ae4       0x30 arch/arm/cpu/armv7/start.o
 .rel.text.zynq_gem_send
                0x0000000000456b14       0x10 arch/arm/cpu/armv7/start.o
 .rel.text.zynq_gem_init
                0x0000000000456b24        0x8 arch/arm/cpu/armv7/start.o
 .rel.text.zynq_gem_ofdata_to_platdata
                0x0000000000456b2c       0x38 arch/arm/cpu/armv7/start.o
 .rel.text.zynq_gem_recv
                0x0000000000456b64       0x18 arch/arm/cpu/armv7/start.o
 .rel.text.zynq_gem_probe
                0x0000000000456b7c       0x20 arch/arm/cpu/armv7/start.o
 .rel.rodata.phy_interface_strings
                0x0000000000456b9c       0xe0 arch/arm/cpu/armv7/start.o
 .rel.rodata.zynq_gem_ids
                0x0000000000456c7c       0x18 arch/arm/cpu/armv7/start.o
 .rel.rodata.zynq_gem_ops
                0x0000000000456c94       0x38 arch/arm/cpu/armv7/start.o
 .rel.u_boot_list_2_driver_2_zynq_gem
                0x0000000000456ccc       0x30 arch/arm/cpu/armv7/start.o
 .rel.text.genphy_update_link
                0x0000000000456cfc       0x28 arch/arm/cpu/armv7/start.o
 .rel.text.phy_register
                0x0000000000456d24        0x8 arch/arm/cpu/armv7/start.o
 .rel.text.get_phy_device_by_mask
                0x0000000000456d2c       0x18 arch/arm/cpu/armv7/start.o
 .rel.text.phy_reset
                0x0000000000456d44        0x8 arch/arm/cpu/armv7/start.o
 .rel.text.phy_connect_dev
                0x0000000000456d4c        0x8 arch/arm/cpu/armv7/start.o
 .rel.text.phy_connect
                0x0000000000456d54        0x8 arch/arm/cpu/armv7/start.o
 .rel.text.phy_get_interface_by_name
                0x0000000000456d5c        0x8 arch/arm/cpu/armv7/start.o
 .rel.text.m88e1xxx_parse_status
                0x0000000000456d64       0x18 arch/arm/cpu/armv7/start.o
 .rel.text.phy_marvell_init
                0x0000000000456d7c       0x50 arch/arm/cpu/armv7/start.o
 .rel.text.phy_natsemi_init
                0x0000000000456dcc       0x18 arch/arm/cpu/armv7/start.o
 .rel.text.xilinxphy_config
                0x0000000000456de4        0x8 arch/arm/cpu/armv7/start.o
 .rel.text.phy_xilinx_init
                0x0000000000456dec        0x8 arch/arm/cpu/armv7/start.o
 .rel.data.genphy_driver
                0x0000000000456df4       0x20 arch/arm/cpu/armv7/start.o
 .rel.data.phy_drivers
                0x0000000000456e14       0x10 arch/arm/cpu/armv7/start.o
 .rel.data.M88E1011S_driver
                0x0000000000456e24       0x20 arch/arm/cpu/armv7/start.o
 .rel.data.M88E1111S_driver
                0x0000000000456e44       0x20 arch/arm/cpu/armv7/start.o
 .rel.data.M88E1118R_driver
                0x0000000000456e64       0x20 arch/arm/cpu/armv7/start.o
 .rel.data.M88E1118_driver
                0x0000000000456e84       0x20 arch/arm/cpu/armv7/start.o
 .rel.data.M88E1121R_driver
                0x0000000000456ea4       0x20 arch/arm/cpu/armv7/start.o
 .rel.data.M88E1145_driver
                0x0000000000456ec4       0x20 arch/arm/cpu/armv7/start.o
 .rel.data.M88E1149S_driver
                0x0000000000456ee4       0x20 arch/arm/cpu/armv7/start.o
 .rel.data.M88E1310_driver
                0x0000000000456f04       0x20 arch/arm/cpu/armv7/start.o
 .rel.data.M88E1510_driver
                0x0000000000456f24       0x20 arch/arm/cpu/armv7/start.o
 .rel.data.M88E1518_driver
                0x0000000000456f44       0x20 arch/arm/cpu/armv7/start.o
 .rel.data.DP83630_driver
                0x0000000000456f64       0x20 arch/arm/cpu/armv7/start.o
 .rel.data.DP83848_driver
                0x0000000000456f84       0x20 arch/arm/cpu/armv7/start.o
 .rel.data.DP83865_driver
                0x0000000000456fa4       0x20 arch/arm/cpu/armv7/start.o
 .rel.data.xilinxphy_driver
                0x0000000000456fc4       0x20 arch/arm/cpu/armv7/start.o
 .rel.text.serial_post_probe
                0x0000000000456fe4       0x20 arch/arm/cpu/armv7/start.o
 .rel.text.serial_init
                0x0000000000457004       0x18 arch/arm/cpu/armv7/start.o
 .rel.text.on_baudrate
                0x000000000045701c       0x20 arch/arm/cpu/armv7/start.o
 .rel.rodata.zynq_serial_ids
                0x000000000045703c       0x18 arch/arm/cpu/armv7/start.o
 .rel.rodata.zynq_serial_ops
                0x0000000000457054       0x20 arch/arm/cpu/armv7/start.o
 .rel.u_boot_list_2_env_clbk_2_baudrate
                0x0000000000457074       0x10 arch/arm/cpu/armv7/start.o
 .rel.u_boot_list_2_uclass_2_serial
                0x0000000000457084       0x18 arch/arm/cpu/armv7/start.o
 .rel.u_boot_list_2_driver_2_serial_zynq
                0x000000000045709c       0x28 arch/arm/cpu/armv7/start.o
 .rel.text.spi_set_speed_mode
                0x00000000004570c4       0x10 arch/arm/cpu/armv7/start.o
 .rel.text.spi_post_probe
                0x00000000004570d4        0x8 arch/arm/cpu/armv7/start.o
 .rel.text.spi_get_bus_and_cs
                0x00000000004570dc       0x10 arch/arm/cpu/armv7/start.o
 .rel.text.spi_slave_ofdata_to_platdata
                0x00000000004570ec       0x58 arch/arm/cpu/armv7/start.o
 .rel.text.zynq_qspi_fill_tx_fifo
                0x0000000000457144       0x28 arch/arm/cpu/armv7/start.o
 .rel.text.zynq_qspi_ofdata_to_platdata
                0x000000000045716c       0x30 arch/arm/cpu/armv7/start.o
 .rel.text.zynq_qspi_xfer
                0x000000000045719c       0x28 arch/arm/cpu/armv7/start.o
 .rel.rodata.zynq_qspi_ids
                0x00000000004571c4        0x8 arch/arm/cpu/armv7/start.o
 .rel.rodata.zynq_qspi_ops
                0x00000000004571cc       0x28 arch/arm/cpu/armv7/start.o
 .rel.u_boot_list_2_driver_2_spi_generic_drv
                0x00000000004571f4        0x8 arch/arm/cpu/armv7/start.o
 .rel.u_boot_list_2_uclass_2_spi
                0x00000000004571fc       0x28 arch/arm/cpu/armv7/start.o
 .rel.u_boot_list_2_uclass_2_spi_generic
                0x0000000000457224        0x8 arch/arm/cpu/armv7/start.o
 .rel.u_boot_list_2_driver_2_zynq_qspi
                0x000000000045722c       0x30 arch/arm/cpu/armv7/start.o
 .rel.text.fs_probe_unsupported
                0x000000000045725c        0x8 arch/arm/cpu/armv7/start.o
 .rel.text.fs_get_info
                0x0000000000457264        0x8 arch/arm/cpu/armv7/start.o
 .rel.text.fs_close
                0x000000000045726c        0x8 arch/arm/cpu/armv7/start.o
 .rel.text.fs_set_blk_dev
                0x0000000000457274       0x28 arch/arm/cpu/armv7/start.o
 .rel.text.fs_uuid
                0x000000000045729c        0x0 arch/arm/cpu/armv7/start.o
 .rel.text.fs_ls
                0x000000000045729c        0x8 arch/arm/cpu/armv7/start.o
 .rel.text.fs_exists
                0x00000000004572a4        0x8 arch/arm/cpu/armv7/start.o
 .rel.text.fs_size
                0x00000000004572ac        0x8 arch/arm/cpu/armv7/start.o
 .rel.text.fs_read
                0x00000000004572b4       0x10 arch/arm/cpu/armv7/start.o
 .rel.text.fs_write
                0x00000000004572c4       0x10 arch/arm/cpu/armv7/start.o
 .rel.text.do_size
                0x00000000004572d4        0x8 arch/arm/cpu/armv7/start.o
 .rel.text.do_load
                0x00000000004572dc       0x50 arch/arm/cpu/armv7/start.o
 .rel.text.do_ls
                0x000000000045732c        0x8 arch/arm/cpu/armv7/start.o
 .rel.text.do_save
                0x0000000000457334       0x28 arch/arm/cpu/armv7/start.o
 .rel.text.do_fs_uuid
                0x000000000045735c        0x0 arch/arm/cpu/armv7/start.o
 .rel.text.do_fs_type
                0x000000000045735c       0x10 arch/arm/cpu/armv7/start.o
 .rel.text.downcase
                0x000000000045736c        0x8 arch/arm/cpu/armv7/start.o
 .rel.text.disk_read
                0x0000000000457374       0x10 arch/arm/cpu/armv7/start.o
 .rel.text.get_cluster
                0x0000000000457384        0x8 arch/arm/cpu/armv7/start.o
 .rel.text.read_bootsectandvi
                0x000000000045738c       0x20 arch/arm/cpu/armv7/start.o
 .rel.text.disk_write
                0x00000000004573ac       0x20 arch/arm/cpu/armv7/start.o
 .rel.text.flush_dirty_fat_buffer
                0x00000000004573cc        0x8 arch/arm/cpu/armv7/start.o
 .rel.text.get_fatent
                0x00000000004573d4        0x8 arch/arm/cpu/armv7/start.o
 .rel.text.set_cluster
                0x00000000004573dc        0x8 arch/arm/cpu/armv7/start.o
 .rel.text.set_name
                0x00000000004573e4        0x8 arch/arm/cpu/armv7/start.o
 .rel.text.check_overflow
                0x00000000004573ec       0x10 arch/arm/cpu/armv7/start.o
 .rel.text.get_vfatname
                0x00000000004573fc       0x10 arch/arm/cpu/armv7/start.o
 .rel.text.flush_dir_table.constprop.8
                0x000000000045740c       0x20 arch/arm/cpu/armv7/start.o
 .rel.text.do_fat_write
                0x000000000045742c       0x80 arch/arm/cpu/armv7/start.o
 .rel.text.fat_set_blk_dev
                0x00000000004574ac       0x28 arch/arm/cpu/armv7/start.o
 .rel.text.fat_register_device
                0x00000000004574d4        0x0 arch/arm/cpu/armv7/start.o
 .rel.text.do_fat_read_at
                0x00000000004574d4       0x60 arch/arm/cpu/armv7/start.o
 .rel.text.file_fat_detectfs
                0x0000000000457534       0xb0 arch/arm/cpu/armv7/start.o
 .rel.text.file_fat_read_at
                0x00000000004575e4        0x8 arch/arm/cpu/armv7/start.o
 .rel.text.fat_read_file
                0x00000000004575ec        0x8 arch/arm/cpu/armv7/start.o
 .rel.text.file_fat_write
                0x00000000004575f4       0x10 arch/arm/cpu/armv7/start.o
 .rel.text.file_getfsname
                0x0000000000457604        0x0 arch/arm/cpu/armv7/start.o
 .rel.text.file_cd
                0x0000000000457604        0x0 arch/arm/cpu/armv7/start.o
 .rel.text.file_detectfs
                0x0000000000457604        0x0 arch/arm/cpu/armv7/start.o
 .rel.text.file_ls
                0x0000000000457604        0x0 arch/arm/cpu/armv7/start.o
 .rel.text.file_read
                0x0000000000457604        0x0 arch/arm/cpu/armv7/start.o
 .rel.rodata.filesystems
                0x0000000000457604        0x0 arch/arm/cpu/armv7/start.o
 .rel.data.fstypes
                0x0000000000457604       0x90 arch/arm/cpu/armv7/start.o
 .rel.text.efi_load_pe
                0x0000000000457694       0x88 arch/arm/cpu/armv7/start.o
 .rel.text.efi_save_gd
                0x000000000045771c        0x8 arch/arm/cpu/armv7/start.o
 .rel.text.efi_restore_gd
                0x0000000000457724       0x10 arch/arm/cpu/armv7/start.o
 .rel.text.efi_allocate_pages_ext
                0x0000000000457734        0x8 arch/arm/cpu/armv7/start.o
 .rel.text.efi_free_pages_ext
                0x000000000045773c        0x8 arch/arm/cpu/armv7/start.o
 .rel.text.efi_get_memory_map_ext
                0x0000000000457744        0x8 arch/arm/cpu/armv7/start.o
 .rel.text.efi_calculate_crc32
                0x000000000045774c        0x8 arch/arm/cpu/armv7/start.o
 .rel.text.efi_uninstall_multiple_protocol_interfaces
                0x0000000000457754        0x8 arch/arm/cpu/armv7/start.o
 .rel.text.efi_install_multiple_protocol_interfaces
                0x000000000045775c        0x8 arch/arm/cpu/armv7/start.o
 .rel.text.efi_locate_protocol
                0x0000000000457764       0x18 arch/arm/cpu/armv7/start.o
 .rel.text.efi_locate_handle_buffer
                0x000000000045777c        0x8 arch/arm/cpu/armv7/start.o
 .rel.text.efi_protocols_per_handle
                0x0000000000457784        0x8 arch/arm/cpu/armv7/start.o
 .rel.text.efi_open_protocol_information
                0x000000000045778c        0x8 arch/arm/cpu/armv7/start.o
 .rel.text.efi_open_protocol
                0x0000000000457794       0x10 arch/arm/cpu/armv7/start.o
 .rel.text.efi_disconnect_controller
                0x00000000004577a4        0x8 arch/arm/cpu/armv7/start.o
 .rel.text.efi_connect_controller
                0x00000000004577ac        0x8 arch/arm/cpu/armv7/start.o
 .rel.text.efi_set_watchdog_timer
                0x00000000004577b4        0x8 arch/arm/cpu/armv7/start.o
 .rel.text.efi_stall
                0x00000000004577bc        0x8 arch/arm/cpu/armv7/start.o
 .rel.text.efi_get_next_monotonic_count
                0x00000000004577c4       0x10 arch/arm/cpu/armv7/start.o
 .rel.text.efi_exit_boot_services
                0x00000000004577d4       0x10 arch/arm/cpu/armv7/start.o
 .rel.text.efi_unload_image
                0x00000000004577e4       0x10 arch/arm/cpu/armv7/start.o
 .rel.text.efi_start_image
                0x00000000004577f4       0x18 arch/arm/cpu/armv7/start.o
 .rel.text.efi_load_image
                0x000000000045780c       0x18 arch/arm/cpu/armv7/start.o
 .rel.text.efi_locate_device_path
                0x0000000000457824        0x8 arch/arm/cpu/armv7/start.o
 .rel.text.efi_locate_handle
                0x000000000045782c       0x10 arch/arm/cpu/armv7/start.o
 .rel.text.efi_reinstall_protocol_interface
                0x000000000045783c        0x8 arch/arm/cpu/armv7/start.o
 .rel.text.efi_install_protocol_interface
                0x0000000000457844        0x8 arch/arm/cpu/armv7/start.o
 .rel.text.efi_check_event
                0x000000000045784c        0x8 arch/arm/cpu/armv7/start.o
 .rel.text.efi_close_event
                0x0000000000457854       0x10 arch/arm/cpu/armv7/start.o
 .rel.text.efi_signal_event
                0x0000000000457864        0x8 arch/arm/cpu/armv7/start.o
 .rel.text.efi_set_timer
                0x000000000045786c       0x18 arch/arm/cpu/armv7/start.o
 .rel.text.efi_create_event
                0x0000000000457884       0x10 arch/arm/cpu/armv7/start.o
 .rel.text.efi_free_pool_ext
                0x0000000000457894        0x8 arch/arm/cpu/armv7/start.o
 .rel.text.efi_allocate_pool_ext
                0x000000000045789c        0x8 arch/arm/cpu/armv7/start.o
 .rel.text.efi_restore_tpl
                0x00000000004578a4        0x8 arch/arm/cpu/armv7/start.o
 .rel.text.efi_raise_tpl
                0x00000000004578ac        0x8 arch/arm/cpu/armv7/start.o
 .rel.text.efi_close_protocol
                0x00000000004578b4        0x8 arch/arm/cpu/armv7/start.o
 .rel.text.efi_uninstall_protocol_interface
                0x00000000004578bc        0x8 arch/arm/cpu/armv7/start.o
 .rel.text.efi_register_protocol_notify
                0x00000000004578c4        0x8 arch/arm/cpu/armv7/start.o
 .rel.text.efi_exit_func
                0x00000000004578cc        0x8 arch/arm/cpu/armv7/start.o
 .rel.text.efi_timer_check
                0x00000000004578d4        0x8 arch/arm/cpu/armv7/start.o
 .rel.text.efi_wait_for_event
                0x00000000004578dc       0x10 arch/arm/cpu/armv7/start.o
 .rel.text.efi_install_configuration_table
                0x00000000004578ec       0x10 arch/arm/cpu/armv7/start.o
 .rel.text.efi_install_configuration_table_ext
                0x00000000004578fc        0x8 arch/arm/cpu/armv7/start.o
 .rel.text.efi_runtime_relocate
                0x0000000000457904       0x28 arch/arm/cpu/armv7/start.o
 .rel.text.efi_set_virtual_address_map
                0x000000000045792c       0x18 arch/arm/cpu/armv7/start.o
 .rel.text.efi_add_runtime_mmio
                0x0000000000457944        0x0 arch/arm/cpu/armv7/start.o
 .rel.text.efi_cout_enable_cursor
                0x0000000000457944        0x8 arch/arm/cpu/armv7/start.o
 .rel.text.efi_cout_set_cursor_position
                0x000000000045794c       0x10 arch/arm/cpu/armv7/start.o
 .rel.text.efi_cout_clear_screen
                0x000000000045795c        0x8 arch/arm/cpu/armv7/start.o
 .rel.text.efi_cout_output_string
                0x0000000000457964       0x10 arch/arm/cpu/armv7/start.o
 .rel.text.efi_cout_set_mode
                0x0000000000457974        0x8 arch/arm/cpu/armv7/start.o
 .rel.text.efi_cout_query_mode
                0x000000000045797c       0x20 arch/arm/cpu/armv7/start.o
 .rel.text.efi_find_free_memory
                0x000000000045799c        0x8 arch/arm/cpu/armv7/start.o
 .rel.text.efi_add_memory_map
                0x00000000004579a4       0x10 arch/arm/cpu/armv7/start.o
 .rel.text.efi_get_memory_map
                0x00000000004579b4        0x8 arch/arm/cpu/armv7/start.o
 .rel.text.efi_memory_init
                0x00000000004579bc       0x10 arch/arm/cpu/armv7/start.o
 .rel.text.efi_disk_register
                0x00000000004579cc       0x58 arch/arm/cpu/armv7/start.o
 .rel.text.efi_net_push
                0x0000000000457a24        0x8 arch/arm/cpu/armv7/start.o
 .rel.text.efi_net_get_status
                0x0000000000457a2c        0x8 arch/arm/cpu/armv7/start.o
 .rel.text.efi_net_receive
                0x0000000000457a34       0x28 arch/arm/cpu/armv7/start.o
 .rel.text.efi_net_transmit
                0x0000000000457a5c        0x8 arch/arm/cpu/armv7/start.o
 .rel.text.efi_net_set_dhcp_ack
                0x0000000000457a64        0x0 arch/arm/cpu/armv7/start.o
 .rel.text.efi_net_register
                0x0000000000457a64       0xa8 arch/arm/cpu/armv7/start.o
 .rel.text.efi_smbios_register
                0x0000000000457b0c        0x8 arch/arm/cpu/armv7/start.o
 .rel.text.inflate_fast
                0x0000000000457b14       0x18 arch/arm/cpu/armv7/start.o
 .rel.text.inflate_table
                0x0000000000457b2c       0x20 arch/arm/cpu/armv7/start.o
 .rel.text.inflateInit2_
                0x0000000000457b4c       0x10 arch/arm/cpu/armv7/start.o
 .rel.text.inflate
                0x0000000000457b5c      0x188 arch/arm/cpu/armv7/start.o
 .rel.text.fdt_next_tag
                0x0000000000457ce4       0x48 arch/arm/cpu/armv7/start.o
 .rel.text.fdt_get_phandle
                0x0000000000457d2c       0x10 arch/arm/cpu/armv7/start.o
 .rel.text.fdt_get_alias_namelen
                0x0000000000457d3c        0x8 arch/arm/cpu/armv7/start.o
 .rel.text.fdt_node_check_compatible
                0x0000000000457d44        0x8 arch/arm/cpu/armv7/start.o
 .rel.text.fdt_strerror
                0x0000000000457d4c       0x20 arch/arm/cpu/armv7/start.o
 .rel.text.fdt_find_regions
                0x0000000000457d6c        0x0 arch/arm/cpu/armv7/start.o
 .rel.text.fdt_create_empty_tree
                0x0000000000457d6c        0x0 arch/arm/cpu/armv7/start.o
 .rel.text.fdt_address_cells
                0x0000000000457d6c        0x8 arch/arm/cpu/armv7/start.o
 .rel.text.fdt_size_cells
                0x0000000000457d74        0x8 arch/arm/cpu/armv7/start.o
 .rel.text.fdt_add_alias_regions
                0x0000000000457d7c        0x0 arch/arm/cpu/armv7/start.o
 .rel.text.fdt_next_region
                0x0000000000457d7c        0x0 arch/arm/cpu/armv7/start.o
 .rel.text.crc7
                0x0000000000457d7c        0x0 arch/arm/cpu/armv7/start.o
 .rel.text.crc16_ccitt
                0x0000000000457d7c        0x8 arch/arm/cpu/armv7/start.o
 .rel.text.zunzip
                0x0000000000457d84       0x28 arch/arm/cpu/armv7/start.o
 .rel.text.gunzip
                0x0000000000457dac       0x10 arch/arm/cpu/armv7/start.o
 .rel.text.smbios_write_type3
                0x0000000000457dbc        0x8 arch/arm/cpu/armv7/start.o
 .rel.text.smbios_write_type2
                0x0000000000457dc4       0x10 arch/arm/cpu/armv7/start.o
 .rel.text.smbios_write_type0
                0x0000000000457dd4       0x18 arch/arm/cpu/armv7/start.o
 .rel.text.smbios_write_type1
                0x0000000000457dec       0x18 arch/arm/cpu/armv7/start.o
 .rel.text.smbios_write_type4
                0x0000000000457e04        0x8 arch/arm/cpu/armv7/start.o
 .rel.text.write_smbios_table
                0x0000000000457e0c       0x18 arch/arm/cpu/armv7/start.o
 .rel.text.initcall_run_list
                0x0000000000457e24        0x8 arch/arm/cpu/armv7/start.o
 .rel.text.lmb_alloc_base
                0x0000000000457e2c        0x8 arch/arm/cpu/armv7/start.o
 .rel.text.list_sort
                0x0000000000457e34        0x8 arch/arm/cpu/armv7/start.o
 .rel.text.sha1_finish
                0x0000000000457e3c        0x8 arch/arm/cpu/armv7/start.o
 .rel.text.sha256_finish
                0x0000000000457e44        0x8 arch/arm/cpu/armv7/start.o
 .rel.text.fdtdec_get_compatible
                0x0000000000457e4c        0x0 arch/arm/cpu/armv7/start.o
 .rel.text.fdtdec_get_is_enabled
                0x0000000000457e4c       0x10 arch/arm/cpu/armv7/start.o
 .rel.text.fdtdec_lookup
                0x0000000000457e5c        0x0 arch/arm/cpu/armv7/start.o
 .rel.text.fdtdec_next_compatible
                0x0000000000457e5c        0x0 arch/arm/cpu/armv7/start.o
 .rel.text.fdtdec_next_compatible_subnode
                0x0000000000457e5c        0x0 arch/arm/cpu/armv7/start.o
 .rel.text.fdtdec_next_alias
                0x0000000000457e5c        0x0 arch/arm/cpu/armv7/start.o
 .rel.text.fdtdec_add_aliases_for_id
                0x0000000000457e5c        0x0 arch/arm/cpu/armv7/start.o
 .rel.text.fdtdec_get_alias_seq
                0x0000000000457e5c        0x8 arch/arm/cpu/armv7/start.o
 .rel.text.fdtdec_get_chosen_prop
                0x0000000000457e64        0x8 arch/arm/cpu/armv7/start.o
 .rel.text.fdtdec_prepare_fdt
                0x0000000000457e6c        0x8 arch/arm/cpu/armv7/start.o
 .rel.text.fdtdec_get_config_int
                0x0000000000457e74        0x8 arch/arm/cpu/armv7/start.o
 .rel.text.fdtdec_get_config_bool
                0x0000000000457e7c        0x0 arch/arm/cpu/armv7/start.o
 .rel.text.fdtdec_get_config_string
                0x0000000000457e7c        0x8 arch/arm/cpu/armv7/start.o
 .rel.text.fdtdec_read_fmap_entry
                0x0000000000457e84        0x0 arch/arm/cpu/armv7/start.o
 .rel.text.fdtdec_decode_memory_region
                0x0000000000457e84        0x0 arch/arm/cpu/armv7/start.o
 .rel.text.fdtdec_decode_display_timing
                0x0000000000457e84        0x0 arch/arm/cpu/armv7/start.o
 .rel.text.fdtdec_setup_memory_size
                0x0000000000457e84       0x10 arch/arm/cpu/armv7/start.o
 .rel.text.fdtdec_setup_memory_banksize
                0x0000000000457e94       0x10 arch/arm/cpu/armv7/start.o
 .rel.text.fdtdec_setup
                0x0000000000457ea4       0x10 arch/arm/cpu/armv7/start.o
 .rel.text.match_string
                0x0000000000457eb4        0x8 arch/arm/cpu/armv7/start.o
 .rel.text.match_entry
                0x0000000000457ebc        0x8 arch/arm/cpu/armv7/start.o
 .rel.text.hcreate_r
                0x0000000000457ec4        0x8 arch/arm/cpu/armv7/start.o
 .rel.text.hdestroy_r
                0x0000000000457ecc        0x8 arch/arm/cpu/armv7/start.o
 .rel.text.hmatch_r
                0x0000000000457ed4        0x0 arch/arm/cpu/armv7/start.o
 .rel.text.hsearch_r
                0x0000000000457ed4        0x8 arch/arm/cpu/armv7/start.o
 .rel.text.hdelete_r
                0x0000000000457edc        0x8 arch/arm/cpu/armv7/start.o
 .rel.text.hexport_r
                0x0000000000457ee4       0x18 arch/arm/cpu/armv7/start.o
 .rel.text.himport_r
                0x0000000000457efc       0x20 arch/arm/cpu/armv7/start.o
 .rel.text.display_options
                0x0000000000457f1c       0x10 arch/arm/cpu/armv7/start.o
 .rel.text.print_freq
                0x0000000000457f2c        0x0 arch/arm/cpu/armv7/start.o
 .rel.text.print_size
                0x0000000000457f2c       0x28 arch/arm/cpu/armv7/start.o
 .rel.text.print_buffer
                0x0000000000457f54       0x28 arch/arm/cpu/armv7/start.o
 .rel.text.crc32_no_comp
                0x0000000000457f7c        0x8 arch/arm/cpu/armv7/start.o
 .rel.text.hang
                0x0000000000457f84        0x8 arch/arm/cpu/armv7/start.o
 .rel.text.skip_spaces
                0x0000000000457f8c        0x8 arch/arm/cpu/armv7/start.o
 .rel.text.strim
                0x0000000000457f94        0x8 arch/arm/cpu/armv7/start.o
 .rel.text.emit
                0x0000000000457f9c        0x8 arch/arm/cpu/armv7/start.o
 .rel.text.store_char_in_data
                0x0000000000457fa4        0x8 arch/arm/cpu/armv7/start.o
 .rel.text.match
                0x0000000000457fac       0x98 arch/arm/cpu/armv7/start.o
 .rel.text.quantifier
                0x0000000000458044        0x8 arch/arm/cpu/armv7/start.o
 .rel.text.fixup_branch
                0x000000000045804c        0x8 arch/arm/cpu/armv7/start.o
 .rel.text.compile
                0x0000000000458054       0x28 arch/arm/cpu/armv7/start.o
 .rel.text.slre_compile
                0x000000000045807c        0x8 arch/arm/cpu/armv7/start.o
 .rel.text.strncasecmp
                0x0000000000458084        0x8 arch/arm/cpu/armv7/start.o
 .rel.text.strtok
                0x000000000045808c        0x0 arch/arm/cpu/armv7/start.o
 .rel.text.rand
                0x000000000045808c        0x0 arch/arm/cpu/armv7/start.o
 .rel.text.srand
                0x000000000045808c        0x0 arch/arm/cpu/armv7/start.o
 .rel.text.string
                0x000000000045808c        0x8 arch/arm/cpu/armv7/start.o
 .rel.text.number
                0x0000000000458094        0x8 arch/arm/cpu/armv7/start.o
 .rel.text.vsnprintf_internal
                0x000000000045809c       0x10 arch/arm/cpu/armv7/start.o
 .rel.text.__assert_fail
                0x00000000004580ac        0x0 arch/arm/cpu/armv7/start.o
 .rel.text.simple_itoa
                0x00000000004580ac        0x8 arch/arm/cpu/armv7/start.o
 .rel.text.print_grouped_ull
                0x00000000004580b4        0x0 arch/arm/cpu/armv7/start.o
 .rel.text.simple_strtoul
                0x00000000004580b4        0x8 arch/arm/cpu/armv7/start.o
 .rel.text.simple_strtoull
                0x00000000004580bc        0x8 arch/arm/cpu/armv7/start.o
 .rel.text.trailing_strtoln
                0x00000000004580c4        0x8 arch/arm/cpu/armv7/start.o
 .rel.text.strmhz
                0x00000000004580cc        0x0 arch/arm/cpu/armv7/start.o
 .rel.rodata.efi_boot_services
                0x00000000004580cc      0x150 arch/arm/cpu/armv7/start.o
 .rel.rodata.efi_runtime_detach_list
                0x000000000045821c       0x50 arch/arm/cpu/armv7/start.o
 .rel.rodata.efi_con_in
                0x000000000045826c       0x10 arch/arm/cpu/armv7/start.o
 .rel.rodata.efi_con_out
                0x000000000045827c       0x50 arch/arm/cpu/armv7/start.o
 .rel.rodata.efi_console_control
                0x00000000004582cc       0x18 arch/arm/cpu/armv7/start.o
 .rel.rodata.z_errmsg
                0x00000000004582e4        0x0 arch/arm/cpu/armv7/start.o
 .rel.rodata.fdt_errtable
                0x00000000004582e4       0x88 arch/arm/cpu/armv7/start.o
 .rel.rodata.smbios_write_funcs
                0x000000000045836c       0x38 arch/arm/cpu/armv7/start.o
 .rel.rodata.compat_names
                0x00000000004583a4        0x0 arch/arm/cpu/armv7/start.o
 .rel.data.efi_obj_list
                0x00000000004583a4       0x10 arch/arm/cpu/armv7/start.o
 .rel.data.loaded_image_info_obj.8935
                0x00000000004583b4       0x10 arch/arm/cpu/armv7/start.o
 .relefi_runtime_data
                0x00000000004583c4       0x90 arch/arm/cpu/armv7/start.o
 .rel.data.efi_runtime_mmio
                0x0000000000458454       0x10 arch/arm/cpu/armv7/start.o
 .rel.data.efi_mem
                0x0000000000458464       0x10 arch/arm/cpu/armv7/start.o
 .rel.data.current
                0x0000000000458474        0x0 arch/arm/cpu/armv7/start.o
 .rel.text.arp_init
                0x0000000000458474       0x30 arch/arm/cpu/armv7/start.o
 .rel.text.arp_raw_request
                0x00000000004584a4       0x18 arch/arm/cpu/armv7/start.o
 .rel.text.arp_request
                0x00000000004584bc       0x38 arch/arm/cpu/armv7/start.o
 .rel.text.arp_timeout_check
                0x00000000004584f4       0x28 arch/arm/cpu/armv7/start.o
 .rel.text.arp_receive
                0x000000000045851c       0x40 arch/arm/cpu/armv7/start.o
 .rel.text.bootp_handler
                0x000000000045855c       0x78 arch/arm/cpu/armv7/start.o
 .rel.text.bootp_reset
                0x00000000004585d4       0x20 arch/arm/cpu/armv7/start.o
 .rel.text.bootp_request
                0x00000000004585f4       0x80 arch/arm/cpu/armv7/start.o
 .rel.text.bootp_timeout_handler
                0x0000000000458674       0x30 arch/arm/cpu/armv7/start.o
 .rel.text.eth_write_hwaddr
                0x00000000004586a4       0x10 arch/arm/cpu/armv7/start.o
 .rel.text.eth_post_probe
                0x00000000004586b4       0x30 arch/arm/cpu/armv7/start.o
 .rel.text.eth_post_bind
                0x00000000004586e4        0x8 arch/arm/cpu/armv7/start.o
 .rel.text.eth_get_dev
                0x00000000004586ec        0x8 arch/arm/cpu/armv7/start.o
 .rel.text.eth_set_dev
                0x00000000004586f4        0x8 arch/arm/cpu/armv7/start.o
 .rel.text.eth_get_dev_by_name
                0x00000000004586fc        0x8 arch/arm/cpu/armv7/start.o
 .rel.text.eth_init
                0x0000000000458704       0x28 arch/arm/cpu/armv7/start.o
 .rel.text.eth_initialize
                0x000000000045872c       0x28 arch/arm/cpu/armv7/start.o
 .rel.text.eth_setenv_enetaddr
                0x0000000000458754        0x8 arch/arm/cpu/armv7/start.o
 .rel.text.eth_getenv_enetaddr_by_index
                0x000000000045875c       0x10 arch/arm/cpu/armv7/start.o
 .rel.text.eth_setenv_enetaddr_by_index
                0x000000000045876c       0x10 arch/arm/cpu/armv7/start.o
 .rel.text.eth_mac_skip
                0x000000000045877c       0x10 arch/arm/cpu/armv7/start.o
 .rel.text.eth_get_name
                0x000000000045878c        0x8 arch/arm/cpu/armv7/start.o
 .rel.text.eth_current_changed
                0x0000000000458794       0x18 arch/arm/cpu/armv7/start.o
 .rel.text.eth_try_another
                0x00000000004587ac       0x20 arch/arm/cpu/armv7/start.o
 .rel.text.eth_set_current
                0x00000000004587cc       0x20 arch/arm/cpu/armv7/start.o
 .rel.text.net_clear_handlers
                0x00000000004587ec       0x20 arch/arm/cpu/armv7/start.o
 .rel.text.start_again_timeout_handler
                0x000000000045880c        0x8 arch/arm/cpu/armv7/start.o
 .rel.text.on_ipaddr
                0x0000000000458814        0x8 arch/arm/cpu/armv7/start.o
 .rel.text.on_gatewayip
                0x000000000045881c        0x8 arch/arm/cpu/armv7/start.o
 .rel.text.on_netmask
                0x0000000000458824        0x8 arch/arm/cpu/armv7/start.o
 .rel.text.on_serverip
                0x000000000045882c        0x8 arch/arm/cpu/armv7/start.o
 .rel.text.net_init_loop
                0x0000000000458834        0x8 arch/arm/cpu/armv7/start.o
 .rel.text.net_auto_load
                0x000000000045883c       0x10 arch/arm/cpu/armv7/start.o
 .rel.text.net_init
                0x000000000045884c       0x20 arch/arm/cpu/armv7/start.o
 .rel.text.net_start_again
                0x000000000045886c       0x78 arch/arm/cpu/armv7/start.o
 .rel.text.net_loop
                0x00000000004588e4      0x1c0 arch/arm/cpu/armv7/start.o
 .rel.text.net_get_udp_handler
                0x0000000000458aa4        0x0 arch/arm/cpu/armv7/start.o
 .rel.text.net_set_udp_handler
                0x0000000000458aa4       0x10 arch/arm/cpu/armv7/start.o
 .rel.text.net_get_arp_handler
                0x0000000000458ab4        0x8 arch/arm/cpu/armv7/start.o
 .rel.text.net_set_arp_handler
                0x0000000000458abc       0x10 arch/arm/cpu/armv7/start.o
 .rel.text.net_set_icmp_handler
                0x0000000000458acc        0x8 arch/arm/cpu/armv7/start.o
 .rel.text.net_set_timeout_handler
                0x0000000000458ad4       0x18 arch/arm/cpu/armv7/start.o
 .rel.text.net_process_received_packet
                0x0000000000458aec       0x48 arch/arm/cpu/armv7/start.o
 .rel.text.net_eth_hdr_size
                0x0000000000458b34        0x8 arch/arm/cpu/armv7/start.o
 .rel.text.net_set_ether
                0x0000000000458b3c       0x10 arch/arm/cpu/armv7/start.o
 .rel.text.net_update_ether
                0x0000000000458b4c        0x8 arch/arm/cpu/armv7/start.o
 .rel.text.net_set_ip_header
                0x0000000000458b54        0x8 arch/arm/cpu/armv7/start.o
 .rel.text.net_set_udp_header
                0x0000000000458b5c        0x8 arch/arm/cpu/armv7/start.o
 .rel.text.net_send_udp_packet
                0x0000000000458b64       0x40 arch/arm/cpu/armv7/start.o
 .rel.text.on_bootfile
                0x0000000000458ba4        0x8 arch/arm/cpu/armv7/start.o
 .rel.text.ip_to_string
                0x0000000000458bac        0x8 arch/arm/cpu/armv7/start.o
 .rel.text.vlan_to_string
                0x0000000000458bb4        0x0 arch/arm/cpu/armv7/start.o
 .rel.text.on_nvlan
                0x0000000000458bb4        0x8 arch/arm/cpu/armv7/start.o
 .rel.text.on_vlan
                0x0000000000458bbc        0x8 arch/arm/cpu/armv7/start.o
 .rel.text.ping_timeout_handler
                0x0000000000458bc4        0x8 arch/arm/cpu/armv7/start.o
 .rel.text.ping_start
                0x0000000000458bcc       0x58 arch/arm/cpu/armv7/start.o
 .rel.text.ping_receive
                0x0000000000458c24       0x18 arch/arm/cpu/armv7/start.o
 .rel.text.tftp_complete
                0x0000000000458c3c       0x30 arch/arm/cpu/armv7/start.o
 .rel.text.tftp_send
                0x0000000000458c6c       0xe8 arch/arm/cpu/armv7/start.o
 .rel.text.update_block_number
                0x0000000000458d54       0x38 arch/arm/cpu/armv7/start.o
 .rel.text.tftp_handler
                0x0000000000458d8c       0xd8 arch/arm/cpu/armv7/start.o
 .rel.text.tftp_timeout_handler
                0x0000000000458e64       0x40 arch/arm/cpu/armv7/start.o
 .rel.text.icmp_handler
                0x0000000000458ea4       0x10 arch/arm/cpu/armv7/start.o
 .rel.text.tftp_start
                0x0000000000458eb4      0x1b0 arch/arm/cpu/armv7/start.o
 .rel.u_boot_list_2_env_clbk_2_ethaddr
                0x0000000000459064       0x10 arch/arm/cpu/armv7/start.o
 .rel.u_boot_list_2_uclass_2_eth
                0x0000000000459074       0x28 arch/arm/cpu/armv7/start.o
 .rel.u_boot_list_2_env_clbk_2_bootfile
                0x000000000045909c       0x10 arch/arm/cpu/armv7/start.o
 .rel.u_boot_list_2_env_clbk_2_gatewayip
                0x00000000004590ac       0x10 arch/arm/cpu/armv7/start.o
 .rel.u_boot_list_2_env_clbk_2_ipaddr
                0x00000000004590bc       0x10 arch/arm/cpu/armv7/start.o
 .rel.u_boot_list_2_env_clbk_2_netmask
                0x00000000004590cc       0x10 arch/arm/cpu/armv7/start.o
 .rel.u_boot_list_2_env_clbk_2_nvlan
                0x00000000004590dc       0x10 arch/arm/cpu/armv7/start.o
 .rel.u_boot_list_2_env_clbk_2_serverip
                0x00000000004590ec       0x10 arch/arm/cpu/armv7/start.o
 .rel.u_boot_list_2_env_clbk_2_vlan
                0x00000000004590fc       0x10 arch/arm/cpu/armv7/start.o
 .rel.text.do_dm
                0x000000000045910c        0x8 arch/arm/cpu/armv7/start.o
 .rel.data.test_commands
                0x0000000000459114       0x60 arch/arm/cpu/armv7/start.o
 .rel.u_boot_list_2_cmd_2_dm
                0x0000000000459174       0x20 arch/arm/cpu/armv7/start.o
 .rel.text.raise
                0x0000000000459194        0x0 arch/arm/cpu/armv7/start.o

.rel_dyn_end    0x0000000000459194        0x0
 *(.__rel_dyn_end)
 .__rel_dyn_end
                0x0000000000459194        0x0 arch/arm/lib/built-in.o

.end            0x0000000000459194        0x0
 *(.__end)
 .__end         0x0000000000459194        0x0 arch/arm/lib/built-in.o
                0x0000000000459194                _image_binary_end = .

.bss_start      0x000000000044ff04        0x0
 *(.__bss_start)
 .__bss_start   0x000000000044ff04        0x0 arch/arm/lib/built-in.o
                0x000000000044ff04                __bss_start
                0x000000000044ff04                __bss_base = .

.bss            0x000000000044ff04    0x3f058
 *(.bss*)
 .bss.clks      0x000000000044ff04      0x540 arch/arm/mach-zynq/built-in.o
 .bss.fpga      0x0000000000450444       0x1c board/xilinx/zynq/built-in.o
 .bss.data.7940
                0x0000000000450460      0x400 cmd/built-in.o
 .bss.working_fdt
                0x0000000000450860        0x4 cmd/built-in.o
                0x0000000000450860                working_fdt
 .bss.a_b       0x0000000000450864       0x18 cmd/built-in.o
 .bss.bin_start_address
                0x000000000045087c        0x4 cmd/built-in.o
 .bss.his_eol   0x0000000000450880        0x1 cmd/built-in.o
 .bss.his_pad_char
                0x0000000000450881        0x1 cmd/built-in.o
 *fill*         0x0000000000450882        0x2 
 .bss.his_pad_count
                0x0000000000450884        0x4 cmd/built-in.o
 .bss.his_quote
                0x0000000000450888        0x1 cmd/built-in.o
 *fill*         0x0000000000450889        0x3 
 .bss.k_data_escape
                0x000000000045088c        0x4 cmd/built-in.o
 .bss.k_data_escape_saved
                0x0000000000450890        0x4 cmd/built-in.o
 .bss.os_data_addr
                0x0000000000450894        0x4 cmd/built-in.o
 .bss.os_data_addr_saved
                0x0000000000450898        0x4 cmd/built-in.o
 .bss.os_data_char
                0x000000000045089c        0x4 cmd/built-in.o
 .bss.os_data_init
                0x00000000004508a0        0x4 cmd/built-in.o
 .bss.os_data_state
                0x00000000004508a4        0x4 cmd/built-in.o
 .bss.os_data_state_saved
                0x00000000004508a8        0x4 cmd/built-in.o
 .bss.send_parms
                0x00000000004508ac       0x14 cmd/built-in.o
 .bss.send_ptr  0x00000000004508c0        0x4 cmd/built-in.o
 .bss.base_address
                0x00000000004508c4        0x4 cmd/built-in.o
 .bss.dp_last_addr
                0x00000000004508c8        0x4 cmd/built-in.o
 .bss.dp_last_size
                0x00000000004508cc        0x4 cmd/built-in.o
 .bss.mm_last_addr
                0x00000000004508d0        0x4 cmd/built-in.o
 .bss.mm_last_size
                0x00000000004508d4        0x4 cmd/built-in.o
 .bss.last_addr_hi
                0x00000000004508d8        0x8 cmd/built-in.o
 .bss.last_addr_lo
                0x00000000004508e0        0x8 cmd/built-in.o
 .bss.last_data
                0x00000000004508e8        0x8 cmd/built-in.o
 .bss.last_mask
                0x00000000004508f0        0x4 cmd/built-in.o
 .bss.last_op   0x00000000004508f4        0x4 cmd/built-in.o
 .bss.last_reg_hi
                0x00000000004508f8        0x8 cmd/built-in.o
 .bss.last_reg_lo
                0x0000000000450900        0x8 cmd/built-in.o
 .bss.last_devad_hi
                0x0000000000450908        0x4 cmd/built-in.o
 .bss.last_devad_lo
                0x000000000045090c        0x4 cmd/built-in.o
 .bss.flash     0x0000000000450910        0x4 cmd/built-in.o
 .bss.bitlen    0x0000000000450914        0x4 cmd/built-in.o
 .bss.bus       0x0000000000450918        0x4 cmd/built-in.o
 .bss.cs        0x000000000045091c        0x4 cmd/built-in.o
 .bss.din       0x0000000000450920       0x20 cmd/built-in.o
 .bss.dout      0x0000000000450940       0x20 cmd/built-in.o
 .bss.mode      0x0000000000450960        0x4 cmd/built-in.o
 .bss.buf.8287  0x0000000000450964       0x28 common/built-in.o
 .bss.do_repeat
                0x000000000045098c        0x4 common/built-in.o
 .bss.flag_repeat
                0x0000000000450990        0x4 common/built-in.o
 .bss.ifs       0x0000000000450994        0x4 common/built-in.o
 .bss.last_return_code
                0x0000000000450998        0x4 common/built-in.o
 .bss.map       0x000000000045099c      0x100 common/built-in.o
 .bss.the_command.8087
                0x0000000000450a9c      0x801 common/built-in.o
 *fill*         0x000000000045129d        0x3 
 .bss.top_vars  0x00000000004512a0        0x4 common/built-in.o
 .bss.stored_bootdelay
                0x00000000004512a4        0x4 common/built-in.o
 .bss.monitor_flash_len
                0x00000000004512a8        0x4 common/built-in.o
                0x00000000004512a8                monitor_flash_len
 .bss.images    0x00000000004512ac      0x164 common/built-in.o
                0x00000000004512ac                images
 .bss.callback_list
                0x0000000000451410        0x4 common/built-in.o
 .bss.flags_list
                0x0000000000451414        0x4 common/built-in.o
 .bss.env_flash
                0x0000000000451418        0x4 common/built-in.o
 .bss.current_mii
                0x000000000045141c        0x4 common/built-in.o
 .bss.mii_devs  0x0000000000451420        0x8 common/built-in.o
 .bss.ctrlc_disabled
                0x0000000000451428        0x4 common/built-in.o
 .bss.ctrlc_was_pressed
                0x000000000045142c        0x4 common/built-in.o
 .bss.current_mallinfo
                0x0000000000451430       0x28 common/built-in.o
 .bss.max_sbrked_mem
                0x0000000000451458        0x4 common/built-in.o
 .bss.max_total_mem
                0x000000000045145c        0x4 common/built-in.o
 .bss.mem_malloc_brk
                0x0000000000451460        0x4 common/built-in.o
                0x0000000000451460                mem_malloc_brk
 .bss.mem_malloc_end
                0x0000000000451464        0x4 common/built-in.o
                0x0000000000451464                mem_malloc_end
 .bss.mem_malloc_start
                0x0000000000451468        0x4 common/built-in.o
                0x0000000000451468                mem_malloc_start
 .bss.top_pad   0x000000000045146c        0x4 common/built-in.o
 .bss.load_addr
                0x0000000000451470        0x4 common/built-in.o
                0x0000000000451470                load_addr
 .bss.save_addr
                0x0000000000451474        0x4 common/built-in.o
                0x0000000000451474                save_addr
 .bss.save_size
                0x0000000000451478        0x4 common/built-in.o
                0x0000000000451478                save_size
 .bss.devs      0x000000000045147c       0x4c common/built-in.o
 .bss.stdio_devices
                0x00000000004514c8        0xc common/built-in.o
                0x00000000004514c8                stdio_devices
 .bss.console_buffer
                0x00000000004514d4      0x801 common/built-in.o
                0x00000000004514d4                console_buffer
 *fill*         0x0000000000451cd5        0x3 
 .bss.hist_add_idx
                0x0000000000451cd8        0x4 common/built-in.o
 .bss.hist_lines
                0x0000000000451cdc     0xa014 common/built-in.o
 .bss.hist_list
                0x000000000045bcf0       0x50 common/built-in.o
 .bss.hist_max  0x000000000045bd40        0x4 common/built-in.o
 .bss.hist_num  0x000000000045bd44        0x4 common/built-in.o
 .bss.initted.7952
                0x000000000045bd48        0x4 common/built-in.o
 .bss.xyz       0x000000000045bd4c      0x434 common/built-in.o
 .bss.desc_table
                0x000000000045c180       0x28 drivers/built-in.o
 .bss.initialized.9751
                0x000000000045c1a8        0x4 drivers/mmc/built-in.o
 .bss.aligned_buffer
                0x000000000045c1ac        0x4 drivers/mmc/built-in.o
                0x000000000045c1ac                aligned_buffer
 .bss.env_changed_id.7838
                0x000000000045c1b0        0x4 drivers/net/built-in.o
 .bss.input_buffer
                0x000000000045c1b4      0x200 drivers/net/built-in.o
 .bss.input_offset
                0x000000000045c3b4        0x4 drivers/net/built-in.o
 .bss.input_recursion
                0x000000000045c3b8        0x4 drivers/net/built-in.o
 .bss.input_size
                0x000000000045c3bc        0x4 drivers/net/built-in.o
 .bss.nc_ether  0x000000000045c3c0        0x6 drivers/net/built-in.o
 .bss.nc_in_port
                0x000000000045c3c6        0x2 drivers/net/built-in.o
 .bss.nc_ip     0x000000000045c3c8        0x4 drivers/net/built-in.o
 .bss.nc_out_port
                0x000000000045c3cc        0x2 drivers/net/built-in.o
 *fill*         0x000000000045c3ce        0x2 
 .bss.net_loop_last_protocol
                0x000000000045c3d0        0x4 drivers/net/built-in.o
                0x000000000045c3d0                net_loop_last_protocol
 .bss.net_timeout
                0x000000000045c3d4        0x4 drivers/net/built-in.o
 .bss.netmask.7836
                0x000000000045c3d8        0x4 drivers/net/built-in.o
 .bss.our_ip.7837
                0x000000000045c3dc        0x4 drivers/net/built-in.o
 .bss.output_packet
                0x000000000045c3e0        0x4 drivers/net/built-in.o
 .bss.output_packet_len
                0x000000000045c3e4        0x4 drivers/net/built-in.o
 .bss.output_recursion
                0x000000000045c3e8        0x4 drivers/net/built-in.o
 .bss.current_u_page.11221
                0x000000000045c3ec        0x1 drivers/spi/built-in.o
 *fill*         0x000000000045c3ed        0x3 
 .bss.fs_dev_desc
                0x000000000045c3f0        0x4 fs/built-in.o
 .bss.fs_partition
                0x000000000045c3f4       0x50 fs/built-in.o
 .bss.fs_type   0x000000000045c444        0x4 fs/built-in.o
 .bss.cur_dev   0x000000000045c448        0x4 fs/built-in.o
 .bss.cur_part_info
                0x000000000045c44c       0x50 fs/built-in.o
 .bss.dir_curclust
                0x000000000045c49c        0x4 fs/built-in.o
 .bss.do_fat_read_at_block
                0x000000000045c4a0    0x10000 fs/built-in.o
                0x000000000045c4a0                do_fat_read_at_block
 .bss.empty_dentptr
                0x000000000046c4a0        0x4 fs/built-in.o
 *fill*         0x000000000046c4a4       0x1c 
 .bss.get_contents_vfatname_block
                0x000000000046c4c0    0x10000 fs/built-in.o
                0x000000000046c4c0                get_contents_vfatname_block
 .bss.get_dentfromdir_block
                0x000000000047c4c0    0x10000 fs/built-in.o
                0x000000000047c4c0                get_dentfromdir_block
 .bss.num_of_fats
                0x000000000048c4c0        0x1 fs/built-in.o
 *fill*         0x000000000048c4c1        0x3 
 .bss.total_sector
                0x000000000048c4c4        0x4 fs/built-in.o
 .bss.app_gd    0x000000000048c4c8        0x4 lib/built-in.o
 .bss.efi_gd    0x000000000048c4cc        0x4 lib/built-in.o
 .bss.mono.8983
                0x000000000048c4d0        0x8 lib/built-in.o
 .bss.console_size_queried
                0x000000000048c4d8        0x1 lib/built-in.o
 *fill*         0x000000000048c4d9        0x3 
 .bss.dhcp_ack  0x000000000048c4dc        0x4 lib/built-in.o
 .bss.new_rx_packet
                0x000000000048c4e0        0x1 lib/built-in.o
 *fill*         0x000000000048c4e1        0x3 
 .bss.new_tx_packet
                0x000000000048c4e4        0x4 lib/built-in.o
 .bss.errno     0x000000000048c4e8        0x4 lib/built-in.o
                0x000000000048c4e8                errno
 .bss.local.8027
                0x000000000048c4ec       0x16 lib/built-in.o
 *fill*         0x000000000048c502        0x2 
 .bss.arp_tx_packet
                0x000000000048c504        0x4 net/built-in.o
 .bss.arp_tx_packet_buf
                0x000000000048c508      0x620 net/built-in.o
 .bss.arp_wait_packet_ethaddr
                0x000000000048cb28        0x4 net/built-in.o
                0x000000000048cb28                arp_wait_packet_ethaddr
 .bss.arp_wait_timer_start
                0x000000000048cb2c        0x4 net/built-in.o
                0x000000000048cb2c                arp_wait_timer_start
 .bss.arp_wait_try
                0x000000000048cb30        0x4 net/built-in.o
                0x000000000048cb30                arp_wait_try
 .bss.arp_wait_tx_packet_size
                0x000000000048cb34        0x4 net/built-in.o
                0x000000000048cb34                arp_wait_tx_packet_size
 .bss.net_arp_wait_packet_ip
                0x000000000048cb38        0x4 net/built-in.o
                0x000000000048cb38                net_arp_wait_packet_ip
 .bss.net_arp_wait_reply_ip
                0x000000000048cb3c        0x4 net/built-in.o
 .bss.bootp_ids
                0x000000000048cb40       0x10 net/built-in.o
                0x000000000048cb40                bootp_ids
 .bss.bootp_num_ids
                0x000000000048cb50        0x4 net/built-in.o
                0x000000000048cb50                bootp_num_ids
 .bss.bootp_start
                0x000000000048cb54        0x4 net/built-in.o
                0x000000000048cb54                bootp_start
 .bss.bootp_timeout
                0x000000000048cb58        0x4 net/built-in.o
                0x000000000048cb58                bootp_timeout
 .bss.bootp_try
                0x000000000048cb5c        0x4 net/built-in.o
                0x000000000048cb5c                bootp_try
 .bss.net_hostname
                0x000000000048cb60       0x20 net/built-in.o
                0x000000000048cb60                net_hostname
 .bss.net_nis_domain
                0x000000000048cb80       0x20 net/built-in.o
                0x000000000048cb80                net_nis_domain
 .bss.net_root_path
                0x000000000048cba0       0x40 net/built-in.o
                0x000000000048cba0                net_root_path
 .bss.time_taken_max
                0x000000000048cbe0        0x4 net/built-in.o
 .bss.eth_errno
                0x000000000048cbe4        0x4 net/built-in.o
 .bss.act.9474  0x000000000048cbe8        0x4 net/built-in.o
 .bss.env_changed_id.9475
                0x000000000048cbec        0x4 net/built-in.o
 .bss.first_failed.9469
                0x000000000048cbf0        0x4 net/built-in.o
 .bss.arp_packet_handler
                0x000000000048cbf4        0x4 net/built-in.o
 .bss.net_boot_file_expected_size_in_blocks
                0x000000000048cbf8        0x4 net/built-in.o
                0x000000000048cbf8                net_boot_file_expected_size_in_blocks
 .bss.net_boot_file_name
                0x000000000048cbfc      0x400 net/built-in.o
                0x000000000048cbfc                net_boot_file_name
 .bss.net_boot_file_size
                0x000000000048cffc        0x4 net/built-in.o
                0x000000000048cffc                net_boot_file_size
 .bss.net_dev_exists
                0x000000000048d000        0x4 net/built-in.o
 .bss.net_dns_server
                0x000000000048d004        0x4 net/built-in.o
                0x000000000048d004                net_dns_server
 .bss.net_ethaddr
                0x000000000048d008        0x6 net/built-in.o
                0x000000000048d008                net_ethaddr
 *fill*         0x000000000048d00e        0x2 
 .bss.net_gateway
                0x000000000048d010        0x4 net/built-in.o
                0x000000000048d010                net_gateway
 .bss.net_ip    0x000000000048d014        0x4 net/built-in.o
                0x000000000048d014                net_ip
 .bss.net_ip_id
                0x000000000048d018        0x4 net/built-in.o
 .bss.net_netmask
                0x000000000048d01c        0x4 net/built-in.o
                0x000000000048d01c                net_netmask
 .bss.net_null_ethaddr
                0x000000000048d020        0x6 net/built-in.o
                0x000000000048d020                net_null_ethaddr
 .bss.net_pkt_buf
                0x000000000048d026     0x1e20 net/built-in.o
 *fill*         0x000000000048ee46        0x2 
 .bss.net_restart_wrap
                0x000000000048ee48        0x4 net/built-in.o
                0x000000000048ee48                net_restart_wrap
 .bss.net_restarted
                0x000000000048ee4c        0x4 net/built-in.o
 .bss.net_rx_packet
                0x000000000048ee50        0x4 net/built-in.o
                0x000000000048ee50                net_rx_packet
 .bss.net_rx_packet_len
                0x000000000048ee54        0x4 net/built-in.o
                0x000000000048ee54                net_rx_packet_len
 .bss.net_rx_packets
                0x000000000048ee58       0x10 net/built-in.o
                0x000000000048ee58                net_rx_packets
 .bss.net_server_ethaddr
                0x000000000048ee68        0x6 net/built-in.o
                0x000000000048ee68                net_server_ethaddr
 *fill*         0x000000000048ee6e        0x2 
 .bss.net_server_ip
                0x000000000048ee70        0x4 net/built-in.o
                0x000000000048ee70                net_server_ip
 .bss.net_state
                0x000000000048ee74        0x4 net/built-in.o
                0x000000000048ee74                net_state
 .bss.net_try_count
                0x000000000048ee78        0x4 net/built-in.o
 .bss.net_tx_packet
                0x000000000048ee7c        0x4 net/built-in.o
                0x000000000048ee7c                net_tx_packet
 .bss.packet_icmp_handler
                0x000000000048ee80        0x4 net/built-in.o
 .bss.push_packet
                0x000000000048ee84        0x4 net/built-in.o
                0x000000000048ee84                push_packet
 .bss.time_delta
                0x000000000048ee88        0x4 net/built-in.o
 .bss.time_handler
                0x000000000048ee8c        0x4 net/built-in.o
 .bss.time_start
                0x000000000048ee90        0x8 net/built-in.o
 .bss.udp_packet_handler
                0x000000000048ee98        0x4 net/built-in.o
 .bss.net_ping_ip
                0x000000000048ee9c        0x4 net/built-in.o
                0x000000000048ee9c                net_ping_ip
 .bss.ping_seq_number
                0x000000000048eea0        0x2 net/built-in.o
 .bss.default_filename
                0x000000000048eea2        0xd net/built-in.o
 *fill*         0x000000000048eeaf        0x1 
 .bss.tftp_block_wrap
                0x000000000048eeb0        0x4 net/built-in.o
 .bss.tftp_block_wrap_offset
                0x000000000048eeb4        0x4 net/built-in.o
 .bss.tftp_cur_block
                0x000000000048eeb8        0x4 net/built-in.o
 .bss.tftp_filename
                0x000000000048eebc       0x80 net/built-in.o
 .bss.tftp_our_port
                0x000000000048ef3c        0x4 net/built-in.o
 .bss.tftp_prev_block
                0x000000000048ef40        0x4 net/built-in.o
 .bss.tftp_put_active
                0x000000000048ef44        0x4 net/built-in.o
 .bss.tftp_put_final_block_sent
                0x000000000048ef48        0x4 net/built-in.o
 .bss.tftp_remote_ip
                0x000000000048ef4c        0x4 net/built-in.o
 .bss.tftp_remote_port
                0x000000000048ef50        0x4 net/built-in.o
 .bss.tftp_state
                0x000000000048ef54        0x4 net/built-in.o
 .bss.timeout_count
                0x000000000048ef58        0x4 net/built-in.o
                0x000000000048ef5c                . = ALIGN (0x4)
                0x000000000048ef5c                __bss_limit = .

.bss_end        0x000000000048ef5c        0x0
 *(.__bss_end)
 .__bss_end     0x000000000048ef5c        0x0 arch/arm/lib/built-in.o
                0x000000000048ef5c                __bss_end

/DISCARD/
 *(.dynsym)
 *(.dynbss*)
 *(.dynstr*)
 *(.dynamic*)
 *(.plt*)
 *(.interp*)
 *(.gnu*)
 *(.ARM.exidx*)
 *(.gnu.linkonce.armexidx.*)
LOAD arch/arm/cpu/armv7/start.o
START GROUP
LOAD arch/arm/cpu/built-in.o
LOAD arch/arm/cpu/armv7/built-in.o
LOAD arch/arm/lib/built-in.o
LOAD arch/arm/mach-zynq/built-in.o
LOAD board/xilinx/zynq/built-in.o
LOAD cmd/built-in.o
LOAD common/built-in.o
LOAD disk/built-in.o
LOAD drivers/built-in.o
LOAD drivers/dma/built-in.o
LOAD drivers/gpio/built-in.o
LOAD drivers/i2c/built-in.o
LOAD drivers/mmc/built-in.o
LOAD drivers/mtd/built-in.o
LOAD drivers/mtd/onenand/built-in.o
LOAD drivers/mtd/spi/built-in.o
LOAD drivers/net/built-in.o
LOAD drivers/net/phy/built-in.o
LOAD drivers/pci/built-in.o
LOAD drivers/power/built-in.o
LOAD drivers/power/battery/built-in.o
LOAD drivers/power/domain/built-in.o
LOAD drivers/power/fuel_gauge/built-in.o
LOAD drivers/power/mfd/built-in.o
LOAD drivers/power/pmic/built-in.o
LOAD drivers/power/regulator/built-in.o
LOAD drivers/serial/built-in.o
LOAD drivers/spi/built-in.o
LOAD drivers/usb/common/built-in.o
LOAD drivers/usb/dwc3/built-in.o
LOAD drivers/usb/emul/built-in.o
LOAD drivers/usb/eth/built-in.o
LOAD drivers/usb/gadget/built-in.o
LOAD drivers/usb/gadget/udc/built-in.o
LOAD drivers/usb/host/built-in.o
LOAD drivers/usb/musb-new/built-in.o
LOAD drivers/usb/musb/built-in.o
LOAD drivers/usb/phy/built-in.o
LOAD drivers/usb/ulpi/built-in.o
LOAD dts/built-in.o
LOAD fs/built-in.o
LOAD lib/built-in.o
LOAD net/built-in.o
LOAD test/built-in.o
LOAD test/dm/built-in.o
END GROUP
LOAD arch/arm/lib/eabi_compat.o
LOAD arch/arm/lib/lib.a
OUTPUT(u-boot elf32-littlearm)

.ARM.attributes
                0x0000000000000000       0x2d
 .ARM.attributes
                0x0000000000000000       0x1f arch/arm/cpu/armv7/start.o
 .ARM.attributes
                0x000000000000001f       0x2d arch/arm/cpu/armv7/built-in.o
 .ARM.attributes
                0x000000000000004c       0x2b arch/arm/lib/built-in.o
 .ARM.attributes
                0x0000000000000077       0x2f arch/arm/mach-zynq/built-in.o
 .ARM.attributes
                0x00000000000000a6       0x2d board/xilinx/zynq/built-in.o
 .ARM.attributes
                0x00000000000000d3       0x2f cmd/built-in.o
 .ARM.attributes
                0x0000000000000102       0x2f common/built-in.o
 .ARM.attributes
                0x0000000000000131       0x2d disk/built-in.o
 .ARM.attributes
                0x000000000000015e       0x2f drivers/built-in.o
 .ARM.attributes
                0x000000000000018d       0x2d drivers/gpio/built-in.o
 .ARM.attributes
                0x00000000000001ba       0x2d drivers/mmc/built-in.o
 .ARM.attributes
                0x00000000000001e7       0x2d drivers/mtd/built-in.o
 .ARM.attributes
                0x0000000000000214       0x2f drivers/mtd/spi/built-in.o
 .ARM.attributes
                0x0000000000000243       0x2d drivers/net/built-in.o
 .ARM.attributes
                0x0000000000000270       0x2d drivers/net/phy/built-in.o
 .ARM.attributes
                0x000000000000029d       0x2d drivers/serial/built-in.o
 .ARM.attributes
                0x00000000000002ca       0x2d drivers/spi/built-in.o
 .ARM.attributes
                0x00000000000002f7       0x1f dts/built-in.o
 .ARM.attributes
                0x0000000000000316       0x2d fs/built-in.o
 .ARM.attributes
                0x0000000000000343       0x2f lib/built-in.o
 .ARM.attributes
                0x0000000000000372       0x2d net/built-in.o
 .ARM.attributes
                0x000000000000039f       0x2d test/dm/built-in.o
 .ARM.attributes
                0x00000000000003cc       0x1f arch/arm/lib/lib.a(ashldi3.o)
 .ARM.attributes
                0x00000000000003eb       0x1f arch/arm/lib/lib.a(lib1funcs.o)
 .ARM.attributes
                0x000000000000040a       0x1f arch/arm/lib/lib.a(lshrdi3.o)
 .ARM.attributes
                0x0000000000000429       0x2d arch/arm/lib/lib.a(div0.o)

.comment        0x0000000000000000       0x36
 .comment       0x0000000000000000       0x36 arch/arm/cpu/armv7/built-in.o
                                         0xdc (size before relaxing)
 .comment       0x0000000000000036      0x226 arch/arm/lib/built-in.o
 .comment       0x0000000000000036      0x113 arch/arm/mach-zynq/built-in.o
 .comment       0x0000000000000036       0x37 board/xilinx/zynq/built-in.o
 .comment       0x0000000000000036      0x6e0 cmd/built-in.o
 .comment       0x0000000000000036      0x785 common/built-in.o
 .comment       0x0000000000000036       0x6e disk/built-in.o
 .comment       0x0000000000000036      0x3a7 drivers/built-in.o
 .comment       0x0000000000000036       0x6e drivers/gpio/built-in.o
 .comment       0x0000000000000036      0x113 drivers/mmc/built-in.o
 .comment       0x0000000000000036       0x6e drivers/mtd/built-in.o
 .comment       0x0000000000000036      0x113 drivers/mtd/spi/built-in.o
 .comment       0x0000000000000036       0x6e drivers/net/built-in.o
 .comment       0x0000000000000036       0xdc drivers/net/phy/built-in.o
 .comment       0x0000000000000036       0x6e drivers/serial/built-in.o
 .comment       0x0000000000000036       0x6e drivers/spi/built-in.o
 .comment       0x0000000000000036       0xa5 fs/built-in.o
 .comment       0x0000000000000036      0xb9a lib/built-in.o
 .comment       0x0000000000000036      0x1b8 net/built-in.o
 .comment       0x0000000000000036       0x37 test/dm/built-in.o
 .comment       0x0000000000000036       0x37 arch/arm/lib/lib.a(div0.o)

.note.GNU-stack
                0x0000000000000000        0x0
 .note.GNU-stack
                0x0000000000000000        0x0 arch/arm/cpu/armv7/built-in.o
 .note.GNU-stack
                0x0000000000000000        0x0 arch/arm/lib/built-in.o
 .note.GNU-stack
                0x0000000000000000        0x0 arch/arm/mach-zynq/built-in.o
 .note.GNU-stack
                0x0000000000000000        0x0 board/xilinx/zynq/built-in.o
 .note.GNU-stack
                0x0000000000000000        0x0 cmd/built-in.o
 .note.GNU-stack
                0x0000000000000000        0x0 common/built-in.o
 .note.GNU-stack
                0x0000000000000000        0x0 disk/built-in.o
 .note.GNU-stack
                0x0000000000000000        0x0 drivers/built-in.o
 .note.GNU-stack
                0x0000000000000000        0x0 drivers/gpio/built-in.o
 .note.GNU-stack
                0x0000000000000000        0x0 drivers/mmc/built-in.o
 .note.GNU-stack
                0x0000000000000000        0x0 drivers/mtd/built-in.o
 .note.GNU-stack
                0x0000000000000000        0x0 drivers/mtd/spi/built-in.o
 .note.GNU-stack
                0x0000000000000000        0x0 drivers/net/built-in.o
 .note.GNU-stack
                0x0000000000000000        0x0 drivers/net/phy/built-in.o
 .note.GNU-stack
                0x0000000000000000        0x0 drivers/serial/built-in.o
 .note.GNU-stack
                0x0000000000000000        0x0 drivers/spi/built-in.o
 .note.GNU-stack
                0x0000000000000000        0x0 fs/built-in.o
 .note.GNU-stack
                0x0000000000000000        0x0 lib/built-in.o
 .note.GNU-stack
                0x0000000000000000        0x0 net/built-in.o
 .note.GNU-stack
                0x0000000000000000        0x0 test/dm/built-in.o
 .note.GNU-stack
                0x0000000000000000        0x0 arch/arm/lib/lib.a(div0.o)

.debug_line     0x0000000000000000    0x26ef9
 .debug_line    0x0000000000000000       0x89 arch/arm/cpu/armv7/start.o
 .debug_line    0x0000000000000089      0x734 arch/arm/cpu/armv7/built-in.o
 .debug_line    0x00000000000007bd     0x1435 arch/arm/lib/built-in.o
 .debug_line    0x0000000000001bf2      0xc4b arch/arm/mach-zynq/built-in.o
 .debug_line    0x000000000000283d      0x263 board/xilinx/zynq/built-in.o
 .debug_line    0x0000000000002aa0     0x5358 cmd/built-in.o
 .debug_line    0x0000000000007df8     0x80e3 common/built-in.o
 .debug_line    0x000000000000fedb      0x756 disk/built-in.o
 .debug_line    0x0000000000010631     0x343a drivers/built-in.o
 .debug_line    0x0000000000013a6b      0xafc drivers/gpio/built-in.o
 .debug_line    0x0000000000014567     0x1a55 drivers/mmc/built-in.o
 .debug_line    0x0000000000015fbc      0x856 drivers/mtd/built-in.o
 .debug_line    0x0000000000016812     0x1075 drivers/mtd/spi/built-in.o
 .debug_line    0x0000000000017887      0x8ea drivers/net/built-in.o
 .debug_line    0x0000000000018171      0xff1 drivers/net/phy/built-in.o
 .debug_line    0x0000000000019162      0x6cf drivers/serial/built-in.o
 .debug_line    0x0000000000019831      0x986 drivers/spi/built-in.o
 .debug_line    0x000000000001a1b7     0x13f9 fs/built-in.o
 .debug_line    0x000000000001b5b0     0x953d lib/built-in.o
 .debug_line    0x0000000000024aed     0x2077 net/built-in.o
 .debug_line    0x0000000000026b64      0x1c8 test/dm/built-in.o
 .debug_line    0x0000000000026d2c       0x4c arch/arm/lib/lib.a(ashldi3.o)
 .debug_line    0x0000000000026d78       0xf1 arch/arm/lib/lib.a(lib1funcs.o)
 .debug_line    0x0000000000026e69       0x4c arch/arm/lib/lib.a(lshrdi3.o)
 .debug_line    0x0000000000026eb5       0x44 arch/arm/lib/lib.a(div0.o)

.debug_info     0x0000000000000000   0x127204
 .debug_info    0x0000000000000000       0x8e arch/arm/cpu/armv7/start.o
 .debug_info    0x000000000000008e     0x32b4 arch/arm/cpu/armv7/built-in.o
 .debug_info    0x0000000000003342     0x9da1 arch/arm/lib/built-in.o
 .debug_info    0x000000000000d0e3     0x6aa8 arch/arm/mach-zynq/built-in.o
 .debug_info    0x0000000000013b8b     0x1272 board/xilinx/zynq/built-in.o
 .debug_info    0x0000000000014dfd    0x2d07b cmd/built-in.o
 .debug_info    0x0000000000041e78    0x3cd37 common/built-in.o
 .debug_info    0x000000000007ebaf     0x3627 disk/built-in.o
 .debug_info    0x00000000000821d6    0x1903d drivers/built-in.o
 .debug_info    0x000000000009b213     0x5034 drivers/gpio/built-in.o
 .debug_info    0x00000000000a0247     0xc2f8 drivers/mmc/built-in.o
 .debug_info    0x00000000000ac53f     0x3b63 drivers/mtd/built-in.o
 .debug_info    0x00000000000b00a2     0x807e drivers/mtd/spi/built-in.o
 .debug_info    0x00000000000b8120     0x4af5 drivers/net/built-in.o
 .debug_info    0x00000000000bcc15     0x8452 drivers/net/phy/built-in.o
 .debug_info    0x00000000000c5067     0x3a1c drivers/serial/built-in.o
 .debug_info    0x00000000000c8a83     0x5dba drivers/spi/built-in.o
 .debug_info    0x00000000000ce83d     0x7c46 fs/built-in.o
 .debug_info    0x00000000000d6483    0x3fff4 lib/built-in.o
 .debug_info    0x0000000000116477     0xfd9f net/built-in.o
 .debug_info    0x0000000000126216      0xdfb test/dm/built-in.o
 .debug_info    0x0000000000127011       0x8a arch/arm/lib/lib.a(ashldi3.o)
 .debug_info    0x000000000012709b       0x88 arch/arm/lib/lib.a(lib1funcs.o)
 .debug_info    0x0000000000127123       0x8a arch/arm/lib/lib.a(lshrdi3.o)
 .debug_info    0x00000000001271ad       0x57 arch/arm/lib/lib.a(div0.o)

.debug_abbrev   0x0000000000000000    0x27e44
 .debug_abbrev  0x0000000000000000       0x14 arch/arm/cpu/armv7/start.o
 .debug_abbrev  0x0000000000000014      0x9bb arch/arm/cpu/armv7/built-in.o
 .debug_abbrev  0x00000000000009cf     0x1885 arch/arm/lib/built-in.o
 .debug_abbrev  0x0000000000002254      0xf84 arch/arm/mach-zynq/built-in.o
 .debug_abbrev  0x00000000000031d8      0x286 board/xilinx/zynq/built-in.o
 .debug_abbrev  0x000000000000345e     0x63f6 cmd/built-in.o
 .debug_abbrev  0x0000000000009854     0x7e39 common/built-in.o
 .debug_abbrev  0x000000000001168d      0x8e4 disk/built-in.o
 .debug_abbrev  0x0000000000011f71     0x38b0 drivers/built-in.o
 .debug_abbrev  0x0000000000015821      0x974 drivers/gpio/built-in.o
 .debug_abbrev  0x0000000000016195     0x1594 drivers/mmc/built-in.o
 .debug_abbrev  0x0000000000017729      0x79a drivers/mtd/built-in.o
 .debug_abbrev  0x0000000000017ec3      0xf64 drivers/mtd/spi/built-in.o
 .debug_abbrev  0x0000000000018e27      0x98b drivers/net/built-in.o
 .debug_abbrev  0x00000000000197b2      0xf31 drivers/net/phy/built-in.o
 .debug_abbrev  0x000000000001a6e3      0x818 drivers/serial/built-in.o
 .debug_abbrev  0x000000000001aefb      0x8f1 drivers/spi/built-in.o
 .debug_abbrev  0x000000000001b7ec      0xdaf fs/built-in.o
 .debug_abbrev  0x000000000001c59b     0x95a1 lib/built-in.o
 .debug_abbrev  0x0000000000025b3c     0x1fe2 net/built-in.o
 .debug_abbrev  0x0000000000027b1e      0x28e test/dm/built-in.o
 .debug_abbrev  0x0000000000027dac       0x14 arch/arm/lib/lib.a(ashldi3.o)
 .debug_abbrev  0x0000000000027dc0       0x12 arch/arm/lib/lib.a(lib1funcs.o)
 .debug_abbrev  0x0000000000027dd2       0x14 arch/arm/lib/lib.a(lshrdi3.o)
 .debug_abbrev  0x0000000000027de6       0x5e arch/arm/lib/lib.a(div0.o)

.debug_aranges  0x0000000000000000     0x4828
 .debug_aranges
                0x0000000000000000       0x20 arch/arm/cpu/armv7/start.o
 .debug_aranges
                0x0000000000000020      0x100 arch/arm/cpu/armv7/built-in.o
 .debug_aranges
                0x0000000000000120      0x2f8 arch/arm/lib/built-in.o
 .debug_aranges
                0x0000000000000418      0x188 arch/arm/mach-zynq/built-in.o
 .debug_aranges
                0x00000000000005a0       0x48 board/xilinx/zynq/built-in.o
 .debug_aranges
                0x00000000000005e8      0x730 cmd/built-in.o
 .debug_aranges
                0x0000000000000d18      0xef8 common/built-in.o
 .debug_aranges
                0x0000000000001c10       0xb8 disk/built-in.o
 .debug_aranges
                0x0000000000001cc8      0x688 drivers/built-in.o
 .debug_aranges
                0x0000000000002350      0x1c0 drivers/gpio/built-in.o
 .debug_aranges
                0x0000000000002510      0x250 drivers/mmc/built-in.o
 .debug_aranges
                0x0000000000002760      0x130 drivers/mtd/built-in.o
 .debug_aranges
                0x0000000000002890      0x188 drivers/mtd/spi/built-in.o
 .debug_aranges
                0x0000000000002a18      0x110 drivers/net/built-in.o
 .debug_aranges
                0x0000000000002b28      0x1d8 drivers/net/phy/built-in.o
 .debug_aranges
                0x0000000000002d00       0xf0 drivers/serial/built-in.o
 .debug_aranges
                0x0000000000002df0      0x118 drivers/spi/built-in.o
 .debug_aranges
                0x0000000000002f08      0x220 fs/built-in.o
 .debug_aranges
                0x0000000000003128     0x12a8 lib/built-in.o
 .debug_aranges
                0x00000000000043d0      0x378 net/built-in.o
 .debug_aranges
                0x0000000000004748       0x38 test/dm/built-in.o
 .debug_aranges
                0x0000000000004780       0x20 arch/arm/lib/lib.a(ashldi3.o)
 .debug_aranges
                0x00000000000047a0       0x48 arch/arm/lib/lib.a(lib1funcs.o)
 .debug_aranges
                0x00000000000047e8       0x20 arch/arm/lib/lib.a(lshrdi3.o)
 .debug_aranges
                0x0000000000004808       0x20 arch/arm/lib/lib.a(div0.o)

.debug_frame    0x0000000000000000     0xcc6c
 .debug_frame   0x0000000000000000      0x1e8 arch/arm/cpu/armv7/built-in.o
 .debug_frame   0x00000000000001e8      0x478 arch/arm/lib/built-in.o
 .debug_frame   0x0000000000000660      0x300 arch/arm/mach-zynq/built-in.o
 .debug_frame   0x0000000000000960       0x90 board/xilinx/zynq/built-in.o
 .debug_frame   0x00000000000009f0     0x12d8 cmd/built-in.o
 .debug_frame   0x0000000000001cc8     0x2cb8 common/built-in.o
 .debug_frame   0x0000000000004980      0x298 disk/built-in.o
 .debug_frame   0x0000000000004c18     0x1258 drivers/built-in.o
 .debug_frame   0x0000000000005e70      0x5ec drivers/gpio/built-in.o
 .debug_frame   0x000000000000645c      0x710 drivers/mmc/built-in.o
 .debug_frame   0x0000000000006b6c      0x460 drivers/mtd/built-in.o
 .debug_frame   0x0000000000006fcc      0x484 drivers/mtd/spi/built-in.o
 .debug_frame   0x0000000000007450      0x338 drivers/net/built-in.o
 .debug_frame   0x0000000000007788      0x5c4 drivers/net/phy/built-in.o
 .debug_frame   0x0000000000007d4c      0x240 drivers/serial/built-in.o
 .debug_frame   0x0000000000007f8c      0x374 drivers/spi/built-in.o
 .debug_frame   0x0000000000008300      0x7a8 fs/built-in.o
 .debug_frame   0x0000000000008aa8     0x36bc lib/built-in.o
 .debug_frame   0x000000000000c164      0xa6c net/built-in.o
 .debug_frame   0x000000000000cbd0       0x7c test/dm/built-in.o
 .debug_frame   0x000000000000cc4c       0x20 arch/arm/lib/lib.a(div0.o)

.debug_str      0x0000000000000000    0x150ba
 .debug_str     0x0000000000000000      0xbda arch/arm/cpu/armv7/built-in.o
                                       0x2ba4 (size before relaxing)
 .debug_str     0x0000000000000bda     0x18f2 arch/arm/lib/built-in.o
                                       0x814b (size before relaxing)
 .debug_str     0x00000000000024cc      0xa1a arch/arm/mach-zynq/built-in.o
                                       0x4a02 (size before relaxing)
 .debug_str     0x0000000000002ee6      0x328 board/xilinx/zynq/built-in.o
                                        0xf75 (size before relaxing)
 .debug_str     0x000000000000320e     0x3b7c cmd/built-in.o
                                      0x1d5e7 (size before relaxing)
 .debug_str     0x0000000000006d8a     0x3b16 common/built-in.o
                                      0x2989b (size before relaxing)
 .debug_str     0x000000000000a8a0      0x37e disk/built-in.o
                                       0x1d77 (size before relaxing)
 .debug_str     0x000000000000ac1e     0x1443 drivers/built-in.o
                                      0x112ba (size before relaxing)
 .debug_str     0x000000000000c061      0x5cd drivers/gpio/built-in.o
                                       0x2e29 (size before relaxing)
 .debug_str     0x000000000000c62e      0x8fe drivers/mmc/built-in.o
                                       0x6c81 (size before relaxing)
 .debug_str     0x000000000000cf2c      0x90f drivers/mtd/built-in.o
                                       0x2337 (size before relaxing)
 .debug_str     0x000000000000d83b      0x642 drivers/mtd/spi/built-in.o
                                       0x570f (size before relaxing)
 .debug_str     0x000000000000de7d      0x645 drivers/net/built-in.o
                                       0x2a6d (size before relaxing)
 .debug_str     0x000000000000e4c2      0x51a drivers/net/phy/built-in.o
                                       0x4291 (size before relaxing)
 .debug_str     0x000000000000e9dc      0x2e4 drivers/serial/built-in.o
                                       0x2b72 (size before relaxing)
 .debug_str     0x000000000000ecc0      0x4af drivers/spi/built-in.o
                                       0x38a8 (size before relaxing)
 .debug_str     0x000000000000f16f      0xd3d fs/built-in.o
                                       0x3544 (size before relaxing)
 .debug_str     0x000000000000feac     0x4264 lib/built-in.o
                                      0x2914e (size before relaxing)
 .debug_str     0x0000000000014110      0xf16 net/built-in.o
                                       0xb595 (size before relaxing)
 .debug_str     0x0000000000015026       0x79 test/dm/built-in.o
                                        0xb6b (size before relaxing)
 .debug_str     0x000000000001509f       0x1b arch/arm/lib/lib.a(div0.o)
                                        0x1d7 (size before relaxing)

.debug_loc      0x0000000000000000    0x6980e
 .debug_loc     0x0000000000000000      0x41e arch/arm/cpu/armv7/built-in.o
 .debug_loc     0x000000000000041e      0xa5d arch/arm/lib/built-in.o
 .debug_loc     0x0000000000000e7b     0x12b0 arch/arm/mach-zynq/built-in.o
 .debug_loc     0x000000000000212b       0x4e board/xilinx/zynq/built-in.o
 .debug_loc     0x0000000000002179     0xb998 cmd/built-in.o
 .debug_loc     0x000000000000db11    0x128cb common/built-in.o
 .debug_loc     0x00000000000203dc     0x1212 disk/built-in.o
 .debug_loc     0x00000000000215ee     0x7393 drivers/built-in.o
 .debug_loc     0x0000000000028981     0x21d5 drivers/gpio/built-in.o
 .debug_loc     0x000000000002ab56     0x4ae0 drivers/mmc/built-in.o
 .debug_loc     0x000000000002f636     0x18bb drivers/mtd/built-in.o
 .debug_loc     0x0000000000030ef1     0x29ca drivers/mtd/spi/built-in.o
 .debug_loc     0x00000000000338bb     0x15a4 drivers/net/built-in.o
 .debug_loc     0x0000000000034e5f     0x4205 drivers/net/phy/built-in.o
 .debug_loc     0x0000000000039064      0x9d1 drivers/serial/built-in.o
 .debug_loc     0x0000000000039a35     0x191d drivers/spi/built-in.o
 .debug_loc     0x000000000003b352     0x5b07 fs/built-in.o
 .debug_loc     0x0000000000040e59    0x2432d lib/built-in.o
 .debug_loc     0x0000000000065186     0x43fe net/built-in.o
 .debug_loc     0x0000000000069584      0x28a test/dm/built-in.o

.debug_ranges   0x0000000000000000     0x91b8
 .debug_ranges  0x0000000000000000      0x108 arch/arm/cpu/armv7/built-in.o
 .debug_ranges  0x0000000000000108      0x1c8 arch/arm/lib/built-in.o
 .debug_ranges  0x00000000000002d0      0x6b0 arch/arm/mach-zynq/built-in.o
 .debug_ranges  0x0000000000000980       0x38 board/xilinx/zynq/built-in.o
 .debug_ranges  0x00000000000009b8     0x1038 cmd/built-in.o
 .debug_ranges  0x00000000000019f0     0x1b58 common/built-in.o
 .debug_ranges  0x0000000000003548      0x1e0 disk/built-in.o
 .debug_ranges  0x0000000000003728      0xc78 drivers/built-in.o
 .debug_ranges  0x00000000000043a0      0x2d0 drivers/gpio/built-in.o
 .debug_ranges  0x0000000000004670      0x758 drivers/mmc/built-in.o
 .debug_ranges  0x0000000000004dc8      0x140 drivers/mtd/built-in.o
 .debug_ranges  0x0000000000004f08      0x380 drivers/mtd/spi/built-in.o
 .debug_ranges  0x0000000000005288      0x288 drivers/net/built-in.o
 .debug_ranges  0x0000000000005510      0x6a8 drivers/net/phy/built-in.o
 .debug_ranges  0x0000000000005bb8      0x1c0 drivers/serial/built-in.o
 .debug_ranges  0x0000000000005d78      0x268 drivers/spi/built-in.o
 .debug_ranges  0x0000000000005fe0      0x720 fs/built-in.o
 .debug_ranges  0x0000000000006700     0x2078 lib/built-in.o
 .debug_ranges  0x0000000000008778      0x9c8 net/built-in.o
 .debug_ranges  0x0000000000009140       0x28 test/dm/built-in.o
 .debug_ranges  0x0000000000009168       0x40 arch/arm/lib/lib.a(lib1funcs.o)
 .debug_ranges  0x00000000000091a8       0x10 arch/arm/lib/lib.a(div0.o)
